     1                                 %line 1+1 ast03.asm
     2                                 
     3                                 
     4                                 
     5                                 
     6                                 
     7                                 
     8                                 
     9                                 
    10                                 
    11                                 
    12                                 %line 27+1 ast03.asm
    13                                 
    14                                 %line 44+1 ast03.asm
    15                                 
    16                                 %line 59+1 ast03.asm
    17                                 
    18                                 %line 79+1 ast03.asm
    19                                 
    20                                 %line 90+1 ast03.asm
    21                                 
    22                                 %line 184+1 ast03.asm
    23                                 
    24                                 %line 225+1 ast03.asm
    25                                 
    26                                 
    27                                 [section .data]
    28                                 
    29                                 
    30                                 
    31                                  NULL equ 0
    32                                  TRUE equ 1
    33                                  FALSE equ 0
    34                                 
    35                                  EXIT_SUCCESS equ 0
    36                                  SYS_exit equ 60
    37                                 
    38 00000000 0A00                    endlMSG db 10, NULL
    39 00000002 2D00                    negSign db "-", NULL
    40 00000004 2000                    spaceMSG db " ", NULL
    41 00000006 4D6178203D2000          maxMSG db "Max = ", NULL
    42 0000000D 4D696E203D2000          minMSG db "Min = ", NULL
    43 00000014 53756D203D2000          sumMSG db "Sum = ", NULL
    44 0000001B 4D656469616E203D20-     medianMSG db "Median = ", NULL
    45 0000001B 00                 
    46 00000025 41766572616765203D-     averageMSG db "Average = ", NULL
    47 00000025 2000               
    48 00000030 436F756E74203D2000      countMSG db "Count = ", NULL
    49 00000039 2A2A2A2A2A2A2A2A2A-     stars db "**********************************************",NULL
    50 00000039 2A2A2A2A2A2A2A2A2A-
    51 00000039 2A2A2A2A2A2A2A2A2A-
    52 00000039 2A2A2A2A2A2A2A2A2A-
    53 00000039 2A2A2A2A2A2A2A2A2A-
    54 00000039 2A00               
    55 00000068 2020204E6F77206368-     allCheckMSG db "   Now checking stats for all!", NULL
    56 00000068 65636B696E67207374-
    57 00000068 61747320666F722061-
    58 00000068 6C6C2100           
    59 00000087 2020204E6F77206368-     sevenCheckMSG db "   Now checking stats for divisible by 7", NULL
    60 00000087 65636B696E67207374-
    61 00000087 61747320666F722064-
    62 00000087 6976697369626C6520-
    63 00000087 6279203700         
    64 000000B0 2020204E6F77206368-     twelveCheckMSG db "   Now checking stats for divisible by 12", NULL
    65 000000B0 65636B696E67207374-
    66 000000B0 61747320666F722064-
    67 000000B0 6976697369626C6520-
    68 000000B0 627920313200       
    69 000000DA 2020204E6F77205072-     arrayAreasCheckMSG db "   Now Printing values of array cubeAreas", NULL
    70 000000DA 696E74696E67207661-
    71 000000DA 6C756573206F662061-
    72 000000DA 727261792063756265-
    73 000000DA 417265617300       
    74 00000104 2020204E6F77205072-     arrayVolumeCheckMSG db "   Now Printing values of array cubeVolumes", NULL
    75 00000104 696E74696E67207661-
    76 00000104 6C756573206F662061-
    77 00000104 727261792063756265-
    78 00000104 566F6C756D657300   
    79                                 
    80 00000130 0000000000000000        min dq 0
    81 00000138 0000000000000000        max dq 0
    82 00000140 0000000000000000        sum dq 0
    83 00000148 0000000000000000        estMedian dq 0
    84 00000150 0000000000000000        average dq 0
    85                                 
    86 00000158 0000000000000000        countSeven dq 0
    87 00000160 0000000000000000        sumSeven dq 0
    88 00000168 0000000000000000        averageSeven dq 0
    89                                 
    90 00000170 0000000000000000        countTwelve dq 0
    91 00000178 0000000000000000        sumTwelve dq 0
    92 00000180 0000000000000000        averageTwelve dq 0
    93                                 
    94 00000188 0700                    seven dw 7
    95 0000018A 0C00                    twelve dw 12
    96 0000018C 0200                    two dw 2
    97                                 
    98 0000018E FFCBFFFF32F0FFFF8C-     lst dd -13313, -4046, 15756, -22097, 29302, 29193, -24441, 2992, -6634,
    99 0000018E 3D0000AFA9FFFF7672-
   100 0000018E 00000972000087A0FF-
   101 0000018E FFB00B000016E6FFFF 
   102 000001B2 84CDFFFF6C0900001C-     dd -12924, 2412, -8420, 2368, -31556, 2398, 19889, 2332, 4815,
   103 000001B2 DFFFFF40090000BC84-
   104 000001B2 FFFF5E090000B14D00-
   105 000001B2 001C090000CF120000 
   106 000001D6 64A3FFFF58AAFFFF2B-     dd -23708, -21928, -213, 16347, -6039, 14866, -8356, -15818, 29261,
   107 000001D6 FFFFFFDB3F000069E8-
   108 000001D6 FFFF123A00005CDFFF-
   109 000001D6 FF36C2FFFF4D720000 
   110 000001FA C9F7FFFF3C2C0000D5-     dd -2103, 11324, -28971, 23778, 1740, -18859, -3834, 12848, -17334,
   111 000001FA 8EFFFFE25C0000CC06-
   112 000001FA 000055B6FFFF06F1FF-
   113 000001FA FF303200004ABCFFFF 
   114 0000021E 90630000CC540000A1-     dd 25488, 21708, -10079, 29675, 4499, 7254, -27277, -21072, -5307,
   115 0000021E D8FFFFEB7300009311-
   116 0000021E 0000561C00007395FF-
   117 0000021E FFB0ADFFFF45EBFFFF 
   118 00000242 891C0000345500005D-     dd 7305, 21812, -19875, 5384, -939, 18544, 16723, -2499, 24410,
   119 00000242 B2FFFF0815000055FC-
   120 00000242 FFFF70480000534100-
   121 00000242 003DF6FFFF5A5F0000 
   122 00000266 54EBFFFF722D00001D-     dd -5292, 11634, -32739, 19302, -32416, -17213, -10716, 25786, 10956,
   123 00000266 80FFFF664B00006081-
   124 00000266 FFFFC3BCFFFF24D6FF-
   125 00000266 FFBA640000CC2A0000 
   126 0000028A CD4B0000FB2C000047-     dd 19405, 11515, 14407, 1747, 24429,
   127 0000028A 380000D30600006D5F-
   128 0000028A 0000               
   129                                 
   130 0000029E D62C00005B5A000066-     aSides dd 11478, 23131, 27238, -19188, 12141, -26202, -22333, 26180, 5780,
   131 0000029E 6A00000CB5FFFF6D2F-
   132 0000029E 0000A699FFFFC3A8FF-
   133 0000029E FF4466000094160000 
   134 000002C2 D7A3FFFFBD5E0000AA-     dd -23593, 24253, 15018, -27513, -22110, -32469, -6759, 3822, 15299,
   135 000002C2 3A00008794FFFFA2A9-
   136 000002C2 FFFF2B81FFFF99E5FF-
   137 000002C2 FFEE0E0000C33B0000 
   138 000002E6 B146000084A0FFFF44-     dd 18097, -24444, 20548, 2756, 18118, -4858, -24506, -3210, -15724,
   139 000002E6 500000C40A0000C646-
   140 000002E6 000006EDFFFF46A0FF-
   141 000002E6 FF76F3FFFF94C2FFFF 
   142 0000030A 592100006E7500009B-     dd 8537, 30062, -31589, 19087, 2206, -734, -20793, -4870, 29019,
   143 0000030A 84FFFF8F4A00009E08-
   144 0000030A 000022FDFFFFC7AEFF-
   145 0000030A FFFAECFFFF5B710000 
   146 0000032E B980FFFFA20E000020-     dd -32583, 3746, 1312, -14025, 135, 17226, -16267, 4482, 18182,
   147 0000032E 05000037C9FFFF8700-
   148 0000032E 00004A43000075C0FF-
   149 0000032E FF8211000006470000 
   150 00000352 F2A4FFFF5ED8FFFFE0-     dd -23310, -10146, 20192, -31881, 26377, 24496, -3096, -32220, -26413,
   151 00000352 4E00007783FFFF0967-
   152 00000352 0000B05F0000E8F3FF-
   153 00000352 FF2482FFFFD398FFFF 
   154 00000376 F660000025F9FFFF1E-     dd 24822, -1755, -3810, -701, 30340, -21331, 18331, 2858, -26515,
   155 00000376 F1FFFF43FDFFFF8476-
   156 00000376 0000ADACFFFF9B4700-
   157 00000376 002A0B00006D98FFFF 
   158 0000039A 5693FFFF23380000AC-     dd -27818, 14371, -8276, -25361, 29870,
   159 0000039A DFFFFFEF9CFFFFAE74-
   160 0000039A 0000               
   161                                 
   162 000003AE D6A4FFFF1C5E000039-     bSides dd -23338, 24092, 25145, -23970, 78, -6063, 28960, 27206, 27353,
   163 000003AE 6200005EA2FFFF4E00-
   164 000003AE 000051E8FFFF207100-
   165 000003AE 00466A0000D96A0000 
   166 000003D2 D7F7FFFF707B000010-     dd -2089, 31600, -20464, 18932, 20912, 25126, -31511, 24098, -16245,
   167 000003D2 B0FFFFF4490000B051-
   168 000003D2 000026620000E984FF-
   169 000003D2 FF225E00008BC0FFFF 
   170 000003F6 6279000027AAFFFFB0-     dd 31074, -21977, 15280, -12015, 9669, 2729, -10789, 5519, -5149,
   171 000003F6 3B000011D1FFFFC525-
   172 000003F6 0000A90A0000DBD5FF-
   173 000003F6 FF8F150000E3EBFFFF 
   174 0000041A 128AFFFF419CFFFF33-     dd -30190, -25535, -29645, -20987, -29854, -22587, -24792, 5911, 16199,
   175 0000041A 8CFFFF05AEFFFF628B-
   176 0000041A FFFFC5A7FFFF289FFF-
   177 0000041A FF17170000473F0000 
   178 0000043E A9510000238EFFFF00-     dd 20905, -29149, 22272, -31486, -14319, 4749, 5866, 2276, 12602,
   179 0000043E 5700000285FFFF11C8-
   180 0000043E FFFF8D120000EA1600-
   181 0000043E 00E40800003A310000 
   182 00000462 394D0000C7FCFFFFD5-     dd 19769, -825, 12757, 19831, 19721, -12417, -24495, -4579, -8403,
   183 00000462 310000774D0000094D-
   184 00000462 00007FCFFFFF51A0FF-
   185 00000462 FF1DEEFFFF2DDFFFFF 
   186 00000486 2DA6FFFF82DFFFFF67-     dd -22995, -8318, 7783, -28927, 27757, -3805, -25305, -96, 18626,
   187 00000486 1E0000018FFFFF6D6C-
   188 00000486 000023F1FFFF279DFF-
   189 00000486 FFA0FFFFFFC2480000 
   190 000004AA C4750000D30F000030-     dd 30148, 4051, 24880, 3355, -20244,
   191 000004AA 6100001B0D0000ECB0-
   192 000004AA FFFF               
   193                                 
   194 000004BE 44                      len db 68
   195                                 
   196                                 
   197                                 
   198                                 [section .bss]
   199 00000000 <gap>                   cubeAreas resq 68
   200 00000220 <gap>                   cubeVolumes resq 68
   201                                 
   202                                 [section .text]
   203                                 
   204                                 [global _start]
   205                                 _start:
   206 00000000 48C7C700000000          mov rdi, 0
   207                                  startInitLoop:
   208 00000007 403A3C25[00000000]      cmp dil, byte[len]
   209 0000000F 741A                    je endInitLoop
   210                                 
   211 00000011 48C704FD[00000000]-     mov qword[cubeAreas+rdi*8], 0
   212 00000011 00000000           
   213 0000001D C704BD[00000000]00-     mov dword[cubeVolumes+rdi*4], 0
   214 0000001D 000000             
   215                                 
   216 00000028 48FFC7                  inc rdi
   217 0000002B EBD8                    jmp startInitLoop
   218                                 
   219                                  endInitLoop:
   220                                 
   221                                 
   222                                 
   223                                 
   224                                 
   225                                 
   226                                 
   227                                 
   228                                 
   229                                 
   230                                 
   231 0000002D 48C7C300000000          mov rbx, 0
   232                                 
   233 00000034 49C7C000000000          mov r8, 0
   234                                 
   235                                 
   236 0000003B 8B0425[00000000]        mov eax, dword [lst]
   237 00000042 4898                    cdqe
   238 00000044 48890425[00000000]      mov qword [min], rax
   239 0000004C 48890425[00000000]      mov qword [max], rax
   240                                 
   241                                  sumLoop:
   242 00000054 B800000000              mov eax, 0
   243 00000059 8A0425[00000000]        mov al, byte [len]
   244 00000060 4939C0                  cmp r8, rax
   245 00000063 0F8DA1000000            jge doneSum
   246                                 
   247                                 
   248 00000069 428B0485[00000000]      mov eax, dword [lst + r8*4]
   249 00000071 3B0425[00000000]        cmp eax, dword [min]
   250 00000078 7D05                    jge finishMin
   251 0000007A 890425[00000000]        mov dword [min], eax
   252                                  finishMin:
   253                                 
   254                                 
   255 00000081 428B0485[00000000]      mov eax, dword [lst + r8*4]
   256 00000089 4898                    cdqe
   257 0000008B 483B0425[00000000]      cmp rax, qword [max]
   258 00000093 7E06                    jle finishMax
   259 00000095 48890425[00000000]      mov qword [max], rax
   260                                  finishMax:
   261                                 
   262                                 
   263 0000009D 428B0485[00000000]      mov eax, dword [lst + r8*4]
   264 000000A5 99                      cdq
   265 000000A6 B907000000              mov ecx, 7
   266 000000AB F7F9                    idiv ecx
   267 000000AD 83FA00                  cmp edx, 0
   268 000000B0 7518                    jne checkSeven
   269                                 
   270                                 
   271 000000B2 48FF0425[00000000]      inc qword [countSeven]
   272 000000BA 428B0485[00000000]      mov eax, dword [lst + r8*4]
   273 000000C2 4898                    cdqe
   274 000000C4 48010425[00000000]      add qword [sumSeven], rax
   275                                  checkSeven:
   276                                 
   277                                 
   278 000000CC 428B0485[00000000]      mov eax, dword [lst + r8*4]
   279 000000D4 99                      cdq
   280 000000D5 B90C000000              mov ecx, 12
   281 000000DA F7F9                    idiv ecx
   282 000000DC 83FA00                  cmp edx, 0
   283 000000DF 7518                    jne checkTwelve
   284                                 
   285                                 
   286 000000E1 48FF0425[00000000]      inc qword [countTwelve]
   287 000000E9 428B0485[00000000]      mov eax, dword [lst + r8*4]
   288 000000F1 4898                    cdqe
   289 000000F3 48010425[00000000]      add qword [sumTwelve], rax
   290                                  checkTwelve:
   291                                 
   292                                 
   293 000000FB 428B0485[00000000]      mov eax, dword [lst + r8*4]
   294 00000103 4898                    cdqe
   295 00000105 4801C3                  add rbx, rax
   296                                 
   297                                 
   298 00000108 49FFC0                  inc r8
   299                                 
   300                                 
   301 0000010B E93FFFFFFF              jmp sumLoop
   302                                  doneSum:
   303                                 
   304                                 
   305 00000110 48891C25[00000000]      mov qword [sum], rbx
   306                                 
   307                                 
   308 00000118 4889D8                  mov rax, rbx
   309 0000011B 4899                    cqo
   310 0000011D 8B0C25[00000000]        mov ecx, [len]
   311 00000124 F7F9                    idiv ecx
   312 00000126 48890425[00000000]      mov qword [average], rax
   313                                 
   314                                 
   315                                 
   316                                 
   317 0000012E 8B0425[00000000]        mov eax, dword [lst]
   318 00000135 8B0C25[84000000]        mov ecx, dword [lst + 33*4]
   319 0000013C 01C8                    add eax, ecx
   320 0000013E 8B0C25[88000000]        mov ecx, dword [lst + 34*4]
   321 00000145 01C8                    add eax, ecx
   322 00000147 8B0C25[0C010000]        mov ecx, dword [lst + 67*4]
   323 0000014E 01C8                    add eax, ecx
   324                                 
   325 00000150 99                      cdq
   326 00000151 B904000000              mov ecx, 4
   327 00000156 F7F9                    idiv ecx
   328 00000158 890425[00000000]        mov dword [estMedian], eax
   329                                 
   330                                 
   331 0000015F 488B0425[00000000]      mov rax, qword [sumSeven]
   332 00000167 4899                    cqo
   333 00000169 488B0C25[00000000]      mov rcx, qword [countSeven]
   334 00000171 48F7F9                  idiv rcx
   335 00000174 48890425[00000000]      mov qword [averageSeven], rax
   336                                 
   337                                 
   338 0000017C 488B0425[00000000]      mov rax, qword [sumTwelve]
   339 00000184 4899                    cqo
   340 00000186 488B0C25[00000000]      mov rcx, qword [countTwelve]
   341 0000018E 48F7F9                  idiv rcx
   342 00000191 48890425[00000000]      mov qword [averageTwelve], rax
   343                                 
   344                                 
   345                                 
   346                                 
   347 00000199 49C7C000000000          mov r8, 0
   348 000001A0 448A0425[00000000]      mov r8b, byte [len]
   349 000001A8 49C7C100000000          mov r9, 0
   350                                 
   351                                  areaCalculation:
   352 000001AF 4538C1                  cmp r9b, r8b
   353 000001B2 7D29                    jge doneArea
   354                                 
   355                                 
   356                                 
   357 000001B4 4489C9                  mov ecx, r9d
   358 000001B7 83C101                  add ecx, 1
   359                                 
   360 000001BA 428B048D[00000000]      mov eax, dword [aSides + r9*4]
   361 000001C2 428B1C8D[00000000]      mov ebx, dword [bSides + r9*4]
   362 000001CA 0FAFC3                  imul eax, ebx
   363                                 
   364 000001CD 99                      cdq
   365 000001CE F7F9                    idiv ecx
   366 000001D0 4898                    cdqe
   367                                 
   368 000001D2 4A8904CD[00000000]      mov [cubeAreas + r9*8], rax
   369                                 
   370 000001DA 41FEC1                  inc r9b
   371                                 
   372 000001DD EBCE                    jmp areaCalculation
   373                                  doneArea:
   374                                 
   375                                 
   376 000001DF 49C7C000000000          mov r8, 0
   377 000001E6 448A0425[00000000]      mov r8b, byte [len]
   378 000001EE 49C7C100000000          mov r9, 0
   379                                 
   380                                  volumeCalculation:
   381 000001F5 4538C1                  cmp r9b, r8b
   382 000001F8 7D2B                    jge doneVolume
   383                                 
   384                                 
   385                                 
   386 000001FA 48C7C182D61200          mov rcx, 1234562
   387                                 
   388 00000201 4A8B04CD[00000000]      mov rax, qword [cubeAreas + r9*8]
   389 00000209 4A8B1CCD[00000000]      mov rbx, qword [cubeAreas + r9*8]
   390 00000211 480FAFC3                imul rax, rbx
   391                                 
   392 00000215 4899                    cqo
   393 00000217 48F7F9                  idiv rcx
   394                                 
   395 0000021A 4A8914CD[00000000]      mov qword [cubeVolumes + r9*8], rdx
   396                                 
   397 00000222 41FEC1                  inc r9b
   398                                 
   399 00000225 EBCC                    jmp volumeCalculation
   400                                  doneVolume:
   401                                 
   402                                 
   403                                 
   404                                 
   405                                 
   406                                 
   407                                 %line 509+0 ast03.asm
   408                                 
   409 00000227 50                      push rax
   410 00000228 52                      push rdx
   411 00000229 53                      push rbx
   412 0000022A 51                      push rcx
   413 0000022B 4152                    push r10
   414 0000022D 4153                    push r11
   415 0000022F 4154                    push r12
   416 00000231 4155                    push r13
   417 00000233 4156                    push r14
   418 00000235 4157                    push r15
   419 00000237 57                      push rdi
   420 00000238 56                      push rsi
   421 00000239 55                      push rbp
   422 0000023A 48C7C001000000          mov rax, 1
   423 00000241 48C7C701000000          mov rdi, 1
   424 00000248 48C7C6[00000000]        mov rsi, stars
   425                                 
   426                                 
   427                                 
   428 0000024F 48C7C200000000          mov rdx, 0
   429                                  ..@6.notNull:
   430                                 
   431 00000256 80BA[00000000]00        cmp byte[stars+rdx], NULL
   432 0000025D 7403                    je ..@6.NullFound
   433                                 
   434                                 
   435 0000025F 48FFC2                  inc rdx
   436                                 
   437 00000262 EBF0                    jmp ..@6.notNull
   438                                  ..@6.NullFound
   439 00000264 0F05                    syscall
   440                                 
   441                                 
   442 00000266 48C7C001000000          mov rax, 1
   443 0000026D 48C7C701000000          mov rdi, 1
   444 00000274 48C7C6[00000000]        mov rsi, spaceMSG
   445 0000027B 48C7C201000000          mov rdx, 1
   446 00000282 0F05                    syscall
   447                                 
   448 00000284 5D                      pop rbp
   449 00000285 5E                      pop rsi
   450 00000286 5F                      pop rdi
   451 00000287 415F                    pop r15
   452 00000289 415E                    pop r14
   453 0000028B 415D                    pop r13
   454 0000028D 415C                    pop r12
   455 0000028F 415B                    pop r11
   456 00000291 415A                    pop r10
   457 00000293 59                      pop rcx
   458 00000294 5B                      pop rbx
   459 00000295 5A                      pop rdx
   460 00000296 58                      pop rax
   461                                 %line 510+1 ast03.asm
   462                                 
   463                                 %line 510+0 ast03.asm
   464                                 
   465 00000297 50                      push rax
   466 00000298 52                      push rdx
   467 00000299 53                      push rbx
   468 0000029A 51                      push rcx
   469 0000029B 4152                    push r10
   470 0000029D 4153                    push r11
   471 0000029F 4154                    push r12
   472 000002A1 4155                    push r13
   473 000002A3 4156                    push r14
   474 000002A5 4157                    push r15
   475 000002A7 57                      push rdi
   476 000002A8 56                      push rsi
   477 000002A9 55                      push rbp
   478 000002AA 48C7C001000000          mov rax, 1
   479 000002B1 48C7C701000000          mov rdi, 1
   480 000002B8 48C7C6[00000000]        mov rsi, endlMSG
   481 000002BF 48C7C201000000          mov rdx, 1
   482 000002C6 0F05                    syscall
   483                                 
   484 000002C8 5D                      pop rbp
   485 000002C9 5E                      pop rsi
   486 000002CA 5F                      pop rdi
   487 000002CB 415F                    pop r15
   488 000002CD 415E                    pop r14
   489 000002CF 415D                    pop r13
   490 000002D1 415C                    pop r12
   491 000002D3 415B                    pop r11
   492 000002D5 415A                    pop r10
   493 000002D7 59                      pop rcx
   494 000002D8 5B                      pop rbx
   495 000002D9 5A                      pop rdx
   496 000002DA 58                      pop rax
   497                                 %line 511+1 ast03.asm
   498                                 
   499                                 %line 511+0 ast03.asm
   500                                 
   501 000002DB 50                      push rax
   502 000002DC 52                      push rdx
   503 000002DD 53                      push rbx
   504 000002DE 51                      push rcx
   505 000002DF 4152                    push r10
   506 000002E1 4153                    push r11
   507 000002E3 4154                    push r12
   508 000002E5 4155                    push r13
   509 000002E7 4156                    push r14
   510 000002E9 4157                    push r15
   511 000002EB 57                      push rdi
   512 000002EC 56                      push rsi
   513 000002ED 55                      push rbp
   514 000002EE 48C7C001000000          mov rax, 1
   515 000002F5 48C7C701000000          mov rdi, 1
   516 000002FC 48C7C6[00000000]        mov rsi, allCheckMSG
   517                                 
   518                                 
   519                                 
   520 00000303 48C7C200000000          mov rdx, 0
   521                                  ..@13.notNull:
   522                                 
   523 0000030A 80BA[00000000]00        cmp byte[allCheckMSG+rdx], NULL
   524 00000311 7403                    je ..@13.NullFound
   525                                 
   526                                 
   527 00000313 48FFC2                  inc rdx
   528                                 
   529 00000316 EBF0                    jmp ..@13.notNull
   530                                  ..@13.NullFound
   531 00000318 0F05                    syscall
   532                                 
   533                                 
   534 0000031A 48C7C001000000          mov rax, 1
   535 00000321 48C7C701000000          mov rdi, 1
   536 00000328 48C7C6[00000000]        mov rsi, spaceMSG
   537 0000032F 48C7C201000000          mov rdx, 1
   538 00000336 0F05                    syscall
   539                                 
   540 00000338 5D                      pop rbp
   541 00000339 5E                      pop rsi
   542 0000033A 5F                      pop rdi
   543 0000033B 415F                    pop r15
   544 0000033D 415E                    pop r14
   545 0000033F 415D                    pop r13
   546 00000341 415C                    pop r12
   547 00000343 415B                    pop r11
   548 00000345 415A                    pop r10
   549 00000347 59                      pop rcx
   550 00000348 5B                      pop rbx
   551 00000349 5A                      pop rdx
   552 0000034A 58                      pop rax
   553                                 %line 512+1 ast03.asm
   554                                 
   555                                 %line 512+0 ast03.asm
   556                                 
   557 0000034B 50                      push rax
   558 0000034C 52                      push rdx
   559 0000034D 53                      push rbx
   560 0000034E 51                      push rcx
   561 0000034F 4152                    push r10
   562 00000351 4153                    push r11
   563 00000353 4154                    push r12
   564 00000355 4155                    push r13
   565 00000357 4156                    push r14
   566 00000359 4157                    push r15
   567 0000035B 57                      push rdi
   568 0000035C 56                      push rsi
   569 0000035D 55                      push rbp
   570 0000035E 48C7C001000000          mov rax, 1
   571 00000365 48C7C701000000          mov rdi, 1
   572 0000036C 48C7C6[00000000]        mov rsi, endlMSG
   573 00000373 48C7C201000000          mov rdx, 1
   574 0000037A 0F05                    syscall
   575                                 
   576 0000037C 5D                      pop rbp
   577 0000037D 5E                      pop rsi
   578 0000037E 5F                      pop rdi
   579 0000037F 415F                    pop r15
   580 00000381 415E                    pop r14
   581 00000383 415D                    pop r13
   582 00000385 415C                    pop r12
   583 00000387 415B                    pop r11
   584 00000389 415A                    pop r10
   585 0000038B 59                      pop rcx
   586 0000038C 5B                      pop rbx
   587 0000038D 5A                      pop rdx
   588 0000038E 58                      pop rax
   589                                 %line 513+1 ast03.asm
   590                                 
   591                                 %line 513+0 ast03.asm
   592                                 
   593 0000038F 50                      push rax
   594 00000390 52                      push rdx
   595 00000391 53                      push rbx
   596 00000392 51                      push rcx
   597 00000393 4152                    push r10
   598 00000395 4153                    push r11
   599 00000397 4154                    push r12
   600 00000399 4155                    push r13
   601 0000039B 4156                    push r14
   602 0000039D 4157                    push r15
   603 0000039F 57                      push rdi
   604 000003A0 56                      push rsi
   605 000003A1 55                      push rbp
   606 000003A2 48C7C001000000          mov rax, 1
   607 000003A9 48C7C701000000          mov rdi, 1
   608 000003B0 48C7C6[00000000]        mov rsi, stars
   609                                 
   610                                 
   611                                 
   612 000003B7 48C7C200000000          mov rdx, 0
   613                                  ..@20.notNull:
   614                                 
   615 000003BE 80BA[00000000]00        cmp byte[stars+rdx], NULL
   616 000003C5 7403                    je ..@20.NullFound
   617                                 
   618                                 
   619 000003C7 48FFC2                  inc rdx
   620                                 
   621 000003CA EBF0                    jmp ..@20.notNull
   622                                  ..@20.NullFound
   623 000003CC 0F05                    syscall
   624                                 
   625                                 
   626 000003CE 48C7C001000000          mov rax, 1
   627 000003D5 48C7C701000000          mov rdi, 1
   628 000003DC 48C7C6[00000000]        mov rsi, spaceMSG
   629 000003E3 48C7C201000000          mov rdx, 1
   630 000003EA 0F05                    syscall
   631                                 
   632 000003EC 5D                      pop rbp
   633 000003ED 5E                      pop rsi
   634 000003EE 5F                      pop rdi
   635 000003EF 415F                    pop r15
   636 000003F1 415E                    pop r14
   637 000003F3 415D                    pop r13
   638 000003F5 415C                    pop r12
   639 000003F7 415B                    pop r11
   640 000003F9 415A                    pop r10
   641 000003FB 59                      pop rcx
   642 000003FC 5B                      pop rbx
   643 000003FD 5A                      pop rdx
   644 000003FE 58                      pop rax
   645                                 %line 514+1 ast03.asm
   646                                 
   647                                 %line 514+0 ast03.asm
   648                                 
   649 000003FF 50                      push rax
   650 00000400 52                      push rdx
   651 00000401 53                      push rbx
   652 00000402 51                      push rcx
   653 00000403 4152                    push r10
   654 00000405 4153                    push r11
   655 00000407 4154                    push r12
   656 00000409 4155                    push r13
   657 0000040B 4156                    push r14
   658 0000040D 4157                    push r15
   659 0000040F 57                      push rdi
   660 00000410 56                      push rsi
   661 00000411 55                      push rbp
   662 00000412 48C7C001000000          mov rax, 1
   663 00000419 48C7C701000000          mov rdi, 1
   664 00000420 48C7C6[00000000]        mov rsi, endlMSG
   665 00000427 48C7C201000000          mov rdx, 1
   666 0000042E 0F05                    syscall
   667                                 
   668 00000430 5D                      pop rbp
   669 00000431 5E                      pop rsi
   670 00000432 5F                      pop rdi
   671 00000433 415F                    pop r15
   672 00000435 415E                    pop r14
   673 00000437 415D                    pop r13
   674 00000439 415C                    pop r12
   675 0000043B 415B                    pop r11
   676 0000043D 415A                    pop r10
   677 0000043F 59                      pop rcx
   678 00000440 5B                      pop rbx
   679 00000441 5A                      pop rdx
   680 00000442 58                      pop rax
   681                                 %line 515+1 ast03.asm
   682                                 
   683                                 %line 515+0 ast03.asm
   684                                 
   685 00000443 50                      push rax
   686 00000444 52                      push rdx
   687 00000445 53                      push rbx
   688 00000446 51                      push rcx
   689 00000447 4152                    push r10
   690 00000449 4153                    push r11
   691 0000044B 4154                    push r12
   692 0000044D 4155                    push r13
   693 0000044F 4156                    push r14
   694 00000451 4157                    push r15
   695 00000453 57                      push rdi
   696 00000454 56                      push rsi
   697 00000455 55                      push rbp
   698 00000456 48C7C001000000          mov rax, 1
   699 0000045D 48C7C701000000          mov rdi, 1
   700 00000464 48C7C6[00000000]        mov rsi, endlMSG
   701 0000046B 48C7C201000000          mov rdx, 1
   702 00000472 0F05                    syscall
   703                                 
   704 00000474 5D                      pop rbp
   705 00000475 5E                      pop rsi
   706 00000476 5F                      pop rdi
   707 00000477 415F                    pop r15
   708 00000479 415E                    pop r14
   709 0000047B 415D                    pop r13
   710 0000047D 415C                    pop r12
   711 0000047F 415B                    pop r11
   712 00000481 415A                    pop r10
   713 00000483 59                      pop rcx
   714 00000484 5B                      pop rbx
   715 00000485 5A                      pop rdx
   716 00000486 58                      pop rax
   717                                 %line 516+1 ast03.asm
   718                                 
   719                                 
   720                                 %line 517+0 ast03.asm
   721                                 
   722 00000487 50                      push rax
   723 00000488 52                      push rdx
   724 00000489 53                      push rbx
   725 0000048A 51                      push rcx
   726 0000048B 4152                    push r10
   727 0000048D 4153                    push r11
   728 0000048F 4154                    push r12
   729 00000491 4155                    push r13
   730 00000493 4156                    push r14
   731 00000495 4157                    push r15
   732 00000497 57                      push rdi
   733 00000498 56                      push rsi
   734 00000499 55                      push rbp
   735 0000049A 48C7C001000000          mov rax, 1
   736 000004A1 48C7C701000000          mov rdi, 1
   737 000004A8 48C7C6[00000000]        mov rsi, maxMSG
   738                                 
   739                                 
   740                                 
   741 000004AF 48C7C200000000          mov rdx, 0
   742                                  ..@30.notNull:
   743                                 
   744 000004B6 80BA[00000000]00        cmp byte[maxMSG+rdx], NULL
   745 000004BD 7403                    je ..@30.NullFound
   746                                 
   747                                 
   748 000004BF 48FFC2                  inc rdx
   749                                 
   750 000004C2 EBF0                    jmp ..@30.notNull
   751                                  ..@30.NullFound
   752 000004C4 0F05                    syscall
   753                                 
   754                                 
   755 000004C6 48C7C001000000          mov rax, 1
   756 000004CD 48C7C701000000          mov rdi, 1
   757 000004D4 48C7C6[00000000]        mov rsi, spaceMSG
   758 000004DB 48C7C201000000          mov rdx, 1
   759 000004E2 0F05                    syscall
   760                                 
   761 000004E4 5D                      pop rbp
   762 000004E5 5E                      pop rsi
   763 000004E6 5F                      pop rdi
   764 000004E7 415F                    pop r15
   765 000004E9 415E                    pop r14
   766 000004EB 415D                    pop r13
   767 000004ED 415C                    pop r12
   768 000004EF 415B                    pop r11
   769 000004F1 415A                    pop r10
   770 000004F3 59                      pop rcx
   771 000004F4 5B                      pop rbx
   772 000004F5 5A                      pop rdx
   773 000004F6 58                      pop rax
   774                                 %line 518+1 ast03.asm
   775                                 
   776                                 %line 518+0 ast03.asm
   777                                 
   778                                 
   779                                 
   780                                 
   781                                 
   782 000004F7 50                      push rax
   783 000004F8 52                      push rdx
   784 000004F9 53                      push rbx
   785 000004FA 51                      push rcx
   786 000004FB 4152                    push r10
   787 000004FD 4153                    push r11
   788 000004FF 4154                    push r12
   789 00000501 4155                    push r13
   790 00000503 4156                    push r14
   791 00000505 4157                    push r15
   792 00000507 57                      push rdi
   793 00000508 56                      push rsi
   794 00000509 55                      push rbp
   795 0000050A 488B0425[00000000]      mov rax, qword[max]
   796 00000512 49C7C200000000          mov r10, 0
   797 00000519 49C7C30A000000          mov r11, 10
   798 00000520 49C7C608000000          mov r14, 8
   799 00000527 49C7C700000000          mov r15, 0
   800 0000052E 48C7C6FFFFFFFF          mov rsi, -1
   801                                 
   802                                  ..@32.startConversion:
   803 00000535 4883F800                cmp rax, 0
   804 00000539 7424                    je ..@32.printNumberInternal
   805                                 
   806 0000053B 4883F800                cmp rax, 0
   807 0000053F 7C12                    jl ..@32.negativeDivision
   808                                 
   809                                 
   810                                 
   811 00000541 48C7C200000000          mov rdx, 0
   812 00000548 49F7F3                  div r11
   813 0000054B 4883C230                add rdx, 48
   814 0000054F 52                      push rdx
   815 00000550 49FFC2                  inc r10
   816 00000553 EBDE                    jmp ..@32.startConversion
   817                                 
   818                                  ..@32.negativeDivision:
   819                                 
   820 00000555 49C7C701000000          mov r15, 1
   821 0000055C 48F7EE                  imul rsi
   822 0000055F EBD2                    jmp ..@32.startConversion
   823                                  ..@32.printNumberInternal:
   824 00000561 4983FF00                cmp r15, 0
   825 00000565 741C                    je ..@32.noNegative
   826                                 
   827 00000567 48C7C001000000          mov rax, 1
   828 0000056E 48C7C701000000          mov rdi, 1
   829 00000575 48C7C6[00000000]        mov rsi, negSign
   830 0000057C 48C7C201000000          mov rdx, 1
   831 00000583 0F05                    syscall
   832                                 
   833                                  ..@32.noNegative:
   834 00000585 4983FA00                cmp r10, 0
   835 00000589 7527                    jne ..@32.printNumberInteral2
   836                                 
   837                                 
   838                                 
   839                                 
   840 0000058B 4983C230                add r10, 48
   841 0000058F 4152                    push r10
   842                                 
   843 00000591 48C7C001000000          mov rax, 1
   844 00000598 48C7C701000000          mov rdi, 1
   845 0000059F 488D3424                lea rsi, qword[rsp]
   846 000005A3 48C7C201000000          mov rdx, 1
   847 000005AA 0F05                    syscall
   848                                 
   849 000005AC 415A                    pop r10
   850 000005AE 4983EA30                sub r10, 48
   851 000005B2 EB2B                    jmp ..@32.finalChecks
   852                                 
   853                                  ..@32.printNumberInteral2:
   854                                 
   855 000005B4 49C7C000000000          mov r8, 0
   856 000005BB 4D89D5                  mov r13, r10
   857                                  ..@32.printTillEnd:
   858                                 
   859 000005BE 48C7C001000000          mov rax, 1
   860 000005C5 48C7C701000000          mov rdi, 1
   861 000005CC 4A8D34C4                lea rsi, qword[rsp+r8*8]
   862 000005D0 48C7C201000000          mov rdx, 1
   863 000005D7 0F05                    syscall
   864                                 
   865                                 
   866 000005D9 49FFC0                  inc r8
   867                                 
   868 000005DC 4D39E8                  cmp r8, r13
   869 000005DF 7CDB                    jl ..@32.printTillEnd
   870                                 
   871                                  ..@32.finalChecks:
   872                                 
   873                                  ..@32.noMorePrints:
   874                                 
   875 000005E1 4C89D0                  mov rax, r10
   876 000005E4 49F7E6                  mul r14
   877 000005E7 4801C4                  add rsp, rax
   878                                  ..@32.endProgram_macro:
   879                                 
   880 000005EA 5D                      pop rbp
   881 000005EB 5E                      pop rsi
   882 000005EC 5F                      pop rdi
   883 000005ED 415F                    pop r15
   884 000005EF 415E                    pop r14
   885 000005F1 415D                    pop r13
   886 000005F3 415C                    pop r12
   887 000005F5 415B                    pop r11
   888 000005F7 415A                    pop r10
   889 000005F9 59                      pop rcx
   890 000005FA 5B                      pop rbx
   891 000005FB 5A                      pop rdx
   892 000005FC 58                      pop rax
   893                                 %line 519+1 ast03.asm
   894                                 
   895                                 %line 519+0 ast03.asm
   896                                 
   897 000005FD 50                      push rax
   898 000005FE 52                      push rdx
   899 000005FF 53                      push rbx
   900 00000600 51                      push rcx
   901 00000601 4152                    push r10
   902 00000603 4153                    push r11
   903 00000605 4154                    push r12
   904 00000607 4155                    push r13
   905 00000609 4156                    push r14
   906 0000060B 4157                    push r15
   907 0000060D 57                      push rdi
   908 0000060E 56                      push rsi
   909 0000060F 55                      push rbp
   910 00000610 48C7C001000000          mov rax, 1
   911 00000617 48C7C701000000          mov rdi, 1
   912 0000061E 48C7C6[00000000]        mov rsi, endlMSG
   913 00000625 48C7C201000000          mov rdx, 1
   914 0000062C 0F05                    syscall
   915                                 
   916 0000062E 5D                      pop rbp
   917 0000062F 5E                      pop rsi
   918 00000630 5F                      pop rdi
   919 00000631 415F                    pop r15
   920 00000633 415E                    pop r14
   921 00000635 415D                    pop r13
   922 00000637 415C                    pop r12
   923 00000639 415B                    pop r11
   924 0000063B 415A                    pop r10
   925 0000063D 59                      pop rcx
   926 0000063E 5B                      pop rbx
   927 0000063F 5A                      pop rdx
   928 00000640 58                      pop rax
   929                                 %line 520+1 ast03.asm
   930                                 
   931                                 
   932                                 %line 521+0 ast03.asm
   933                                 
   934 00000641 50                      push rax
   935 00000642 52                      push rdx
   936 00000643 53                      push rbx
   937 00000644 51                      push rcx
   938 00000645 4152                    push r10
   939 00000647 4153                    push r11
   940 00000649 4154                    push r12
   941 0000064B 4155                    push r13
   942 0000064D 4156                    push r14
   943 0000064F 4157                    push r15
   944 00000651 57                      push rdi
   945 00000652 56                      push rsi
   946 00000653 55                      push rbp
   947 00000654 48C7C001000000          mov rax, 1
   948 0000065B 48C7C701000000          mov rdi, 1
   949 00000662 48C7C6[00000000]        mov rsi, minMSG
   950                                 
   951                                 
   952                                 
   953 00000669 48C7C200000000          mov rdx, 0
   954                                  ..@40.notNull:
   955                                 
   956 00000670 80BA[00000000]00        cmp byte[minMSG+rdx], NULL
   957 00000677 7403                    je ..@40.NullFound
   958                                 
   959                                 
   960 00000679 48FFC2                  inc rdx
   961                                 
   962 0000067C EBF0                    jmp ..@40.notNull
   963                                  ..@40.NullFound
   964 0000067E 0F05                    syscall
   965                                 
   966                                 
   967 00000680 48C7C001000000          mov rax, 1
   968 00000687 48C7C701000000          mov rdi, 1
   969 0000068E 48C7C6[00000000]        mov rsi, spaceMSG
   970 00000695 48C7C201000000          mov rdx, 1
   971 0000069C 0F05                    syscall
   972                                 
   973 0000069E 5D                      pop rbp
   974 0000069F 5E                      pop rsi
   975 000006A0 5F                      pop rdi
   976 000006A1 415F                    pop r15
   977 000006A3 415E                    pop r14
   978 000006A5 415D                    pop r13
   979 000006A7 415C                    pop r12
   980 000006A9 415B                    pop r11
   981 000006AB 415A                    pop r10
   982 000006AD 59                      pop rcx
   983 000006AE 5B                      pop rbx
   984 000006AF 5A                      pop rdx
   985 000006B0 58                      pop rax
   986                                 %line 522+1 ast03.asm
   987                                 
   988                                 %line 522+0 ast03.asm
   989                                 
   990                                 
   991                                 
   992                                 
   993                                 
   994 000006B1 50                      push rax
   995 000006B2 52                      push rdx
   996 000006B3 53                      push rbx
   997 000006B4 51                      push rcx
   998 000006B5 4152                    push r10
   999 000006B7 4153                    push r11
  1000 000006B9 4154                    push r12
  1001 000006BB 4155                    push r13
  1002 000006BD 4156                    push r14
  1003 000006BF 4157                    push r15
  1004 000006C1 57                      push rdi
  1005 000006C2 56                      push rsi
  1006 000006C3 55                      push rbp
  1007 000006C4 488B0425[00000000]      mov rax, qword[min]
  1008 000006CC 49C7C200000000          mov r10, 0
  1009 000006D3 49C7C30A000000          mov r11, 10
  1010 000006DA 49C7C608000000          mov r14, 8
  1011 000006E1 49C7C700000000          mov r15, 0
  1012 000006E8 48C7C6FFFFFFFF          mov rsi, -1
  1013                                 
  1014                                  ..@42.startConversion:
  1015 000006EF 4883F800                cmp rax, 0
  1016 000006F3 7424                    je ..@42.printNumberInternal
  1017                                 
  1018 000006F5 4883F800                cmp rax, 0
  1019 000006F9 7C12                    jl ..@42.negativeDivision
  1020                                 
  1021                                 
  1022                                 
  1023 000006FB 48C7C200000000          mov rdx, 0
  1024 00000702 49F7F3                  div r11
  1025 00000705 4883C230                add rdx, 48
  1026 00000709 52                      push rdx
  1027 0000070A 49FFC2                  inc r10
  1028 0000070D EBDE                    jmp ..@42.startConversion
  1029                                 
  1030                                  ..@42.negativeDivision:
  1031                                 
  1032 0000070F 49C7C701000000          mov r15, 1
  1033 00000716 48F7EE                  imul rsi
  1034 00000719 EBD2                    jmp ..@42.startConversion
  1035                                  ..@42.printNumberInternal:
  1036 0000071B 4983FF00                cmp r15, 0
  1037 0000071F 741C                    je ..@42.noNegative
  1038                                 
  1039 00000721 48C7C001000000          mov rax, 1
  1040 00000728 48C7C701000000          mov rdi, 1
  1041 0000072F 48C7C6[00000000]        mov rsi, negSign
  1042 00000736 48C7C201000000          mov rdx, 1
  1043 0000073D 0F05                    syscall
  1044                                 
  1045                                  ..@42.noNegative:
  1046 0000073F 4983FA00                cmp r10, 0
  1047 00000743 7527                    jne ..@42.printNumberInteral2
  1048                                 
  1049                                 
  1050                                 
  1051                                 
  1052 00000745 4983C230                add r10, 48
  1053 00000749 4152                    push r10
  1054                                 
  1055 0000074B 48C7C001000000          mov rax, 1
  1056 00000752 48C7C701000000          mov rdi, 1
  1057 00000759 488D3424                lea rsi, qword[rsp]
  1058 0000075D 48C7C201000000          mov rdx, 1
  1059 00000764 0F05                    syscall
  1060                                 
  1061 00000766 415A                    pop r10
  1062 00000768 4983EA30                sub r10, 48
  1063 0000076C EB2B                    jmp ..@42.finalChecks
  1064                                 
  1065                                  ..@42.printNumberInteral2:
  1066                                 
  1067 0000076E 49C7C000000000          mov r8, 0
  1068 00000775 4D89D5                  mov r13, r10
  1069                                  ..@42.printTillEnd:
  1070                                 
  1071 00000778 48C7C001000000          mov rax, 1
  1072 0000077F 48C7C701000000          mov rdi, 1
  1073 00000786 4A8D34C4                lea rsi, qword[rsp+r8*8]
  1074 0000078A 48C7C201000000          mov rdx, 1
  1075 00000791 0F05                    syscall
  1076                                 
  1077                                 
  1078 00000793 49FFC0                  inc r8
  1079                                 
  1080 00000796 4D39E8                  cmp r8, r13
  1081 00000799 7CDB                    jl ..@42.printTillEnd
  1082                                 
  1083                                  ..@42.finalChecks:
  1084                                 
  1085                                  ..@42.noMorePrints:
  1086                                 
  1087 0000079B 4C89D0                  mov rax, r10
  1088 0000079E 49F7E6                  mul r14
  1089 000007A1 4801C4                  add rsp, rax
  1090                                  ..@42.endProgram_macro:
  1091                                 
  1092 000007A4 5D                      pop rbp
  1093 000007A5 5E                      pop rsi
  1094 000007A6 5F                      pop rdi
  1095 000007A7 415F                    pop r15
  1096 000007A9 415E                    pop r14
  1097 000007AB 415D                    pop r13
  1098 000007AD 415C                    pop r12
  1099 000007AF 415B                    pop r11
  1100 000007B1 415A                    pop r10
  1101 000007B3 59                      pop rcx
  1102 000007B4 5B                      pop rbx
  1103 000007B5 5A                      pop rdx
  1104 000007B6 58                      pop rax
  1105                                 %line 523+1 ast03.asm
  1106                                 
  1107                                 %line 523+0 ast03.asm
  1108                                 
  1109 000007B7 50                      push rax
  1110 000007B8 52                      push rdx
  1111 000007B9 53                      push rbx
  1112 000007BA 51                      push rcx
  1113 000007BB 4152                    push r10
  1114 000007BD 4153                    push r11
  1115 000007BF 4154                    push r12
  1116 000007C1 4155                    push r13
  1117 000007C3 4156                    push r14
  1118 000007C5 4157                    push r15
  1119 000007C7 57                      push rdi
  1120 000007C8 56                      push rsi
  1121 000007C9 55                      push rbp
  1122 000007CA 48C7C001000000          mov rax, 1
  1123 000007D1 48C7C701000000          mov rdi, 1
  1124 000007D8 48C7C6[00000000]        mov rsi, endlMSG
  1125 000007DF 48C7C201000000          mov rdx, 1
  1126 000007E6 0F05                    syscall
  1127                                 
  1128 000007E8 5D                      pop rbp
  1129 000007E9 5E                      pop rsi
  1130 000007EA 5F                      pop rdi
  1131 000007EB 415F                    pop r15
  1132 000007ED 415E                    pop r14
  1133 000007EF 415D                    pop r13
  1134 000007F1 415C                    pop r12
  1135 000007F3 415B                    pop r11
  1136 000007F5 415A                    pop r10
  1137 000007F7 59                      pop rcx
  1138 000007F8 5B                      pop rbx
  1139 000007F9 5A                      pop rdx
  1140 000007FA 58                      pop rax
  1141                                 %line 524+1 ast03.asm
  1142                                 
  1143                                 
  1144                                 %line 525+0 ast03.asm
  1145                                 
  1146 000007FB 50                      push rax
  1147 000007FC 52                      push rdx
  1148 000007FD 53                      push rbx
  1149 000007FE 51                      push rcx
  1150 000007FF 4152                    push r10
  1151 00000801 4153                    push r11
  1152 00000803 4154                    push r12
  1153 00000805 4155                    push r13
  1154 00000807 4156                    push r14
  1155 00000809 4157                    push r15
  1156 0000080B 57                      push rdi
  1157 0000080C 56                      push rsi
  1158 0000080D 55                      push rbp
  1159 0000080E 48C7C001000000          mov rax, 1
  1160 00000815 48C7C701000000          mov rdi, 1
  1161 0000081C 48C7C6[00000000]        mov rsi, sumMSG
  1162                                 
  1163                                 
  1164                                 
  1165 00000823 48C7C200000000          mov rdx, 0
  1166                                  ..@50.notNull:
  1167                                 
  1168 0000082A 80BA[00000000]00        cmp byte[sumMSG+rdx], NULL
  1169 00000831 7403                    je ..@50.NullFound
  1170                                 
  1171                                 
  1172 00000833 48FFC2                  inc rdx
  1173                                 
  1174 00000836 EBF0                    jmp ..@50.notNull
  1175                                  ..@50.NullFound
  1176 00000838 0F05                    syscall
  1177                                 
  1178                                 
  1179 0000083A 48C7C001000000          mov rax, 1
  1180 00000841 48C7C701000000          mov rdi, 1
  1181 00000848 48C7C6[00000000]        mov rsi, spaceMSG
  1182 0000084F 48C7C201000000          mov rdx, 1
  1183 00000856 0F05                    syscall
  1184                                 
  1185 00000858 5D                      pop rbp
  1186 00000859 5E                      pop rsi
  1187 0000085A 5F                      pop rdi
  1188 0000085B 415F                    pop r15
  1189 0000085D 415E                    pop r14
  1190 0000085F 415D                    pop r13
  1191 00000861 415C                    pop r12
  1192 00000863 415B                    pop r11
  1193 00000865 415A                    pop r10
  1194 00000867 59                      pop rcx
  1195 00000868 5B                      pop rbx
  1196 00000869 5A                      pop rdx
  1197 0000086A 58                      pop rax
  1198                                 %line 526+1 ast03.asm
  1199                                 
  1200                                 %line 526+0 ast03.asm
  1201                                 
  1202                                 
  1203                                 
  1204                                 
  1205                                 
  1206 0000086B 50                      push rax
  1207 0000086C 52                      push rdx
  1208 0000086D 53                      push rbx
  1209 0000086E 51                      push rcx
  1210 0000086F 4152                    push r10
  1211 00000871 4153                    push r11
  1212 00000873 4154                    push r12
  1213 00000875 4155                    push r13
  1214 00000877 4156                    push r14
  1215 00000879 4157                    push r15
  1216 0000087B 57                      push rdi
  1217 0000087C 56                      push rsi
  1218 0000087D 55                      push rbp
  1219 0000087E 488B0425[00000000]      mov rax, qword[sum]
  1220 00000886 49C7C200000000          mov r10, 0
  1221 0000088D 49C7C30A000000          mov r11, 10
  1222 00000894 49C7C608000000          mov r14, 8
  1223 0000089B 49C7C700000000          mov r15, 0
  1224 000008A2 48C7C6FFFFFFFF          mov rsi, -1
  1225                                 
  1226                                  ..@52.startConversion:
  1227 000008A9 4883F800                cmp rax, 0
  1228 000008AD 7424                    je ..@52.printNumberInternal
  1229                                 
  1230 000008AF 4883F800                cmp rax, 0
  1231 000008B3 7C12                    jl ..@52.negativeDivision
  1232                                 
  1233                                 
  1234                                 
  1235 000008B5 48C7C200000000          mov rdx, 0
  1236 000008BC 49F7F3                  div r11
  1237 000008BF 4883C230                add rdx, 48
  1238 000008C3 52                      push rdx
  1239 000008C4 49FFC2                  inc r10
  1240 000008C7 EBDE                    jmp ..@52.startConversion
  1241                                 
  1242                                  ..@52.negativeDivision:
  1243                                 
  1244 000008C9 49C7C701000000          mov r15, 1
  1245 000008D0 48F7EE                  imul rsi
  1246 000008D3 EBD2                    jmp ..@52.startConversion
  1247                                  ..@52.printNumberInternal:
  1248 000008D5 4983FF00                cmp r15, 0
  1249 000008D9 741C                    je ..@52.noNegative
  1250                                 
  1251 000008DB 48C7C001000000          mov rax, 1
  1252 000008E2 48C7C701000000          mov rdi, 1
  1253 000008E9 48C7C6[00000000]        mov rsi, negSign
  1254 000008F0 48C7C201000000          mov rdx, 1
  1255 000008F7 0F05                    syscall
  1256                                 
  1257                                  ..@52.noNegative:
  1258 000008F9 4983FA00                cmp r10, 0
  1259 000008FD 7527                    jne ..@52.printNumberInteral2
  1260                                 
  1261                                 
  1262                                 
  1263                                 
  1264 000008FF 4983C230                add r10, 48
  1265 00000903 4152                    push r10
  1266                                 
  1267 00000905 48C7C001000000          mov rax, 1
  1268 0000090C 48C7C701000000          mov rdi, 1
  1269 00000913 488D3424                lea rsi, qword[rsp]
  1270 00000917 48C7C201000000          mov rdx, 1
  1271 0000091E 0F05                    syscall
  1272                                 
  1273 00000920 415A                    pop r10
  1274 00000922 4983EA30                sub r10, 48
  1275 00000926 EB2B                    jmp ..@52.finalChecks
  1276                                 
  1277                                  ..@52.printNumberInteral2:
  1278                                 
  1279 00000928 49C7C000000000          mov r8, 0
  1280 0000092F 4D89D5                  mov r13, r10
  1281                                  ..@52.printTillEnd:
  1282                                 
  1283 00000932 48C7C001000000          mov rax, 1
  1284 00000939 48C7C701000000          mov rdi, 1
  1285 00000940 4A8D34C4                lea rsi, qword[rsp+r8*8]
  1286 00000944 48C7C201000000          mov rdx, 1
  1287 0000094B 0F05                    syscall
  1288                                 
  1289                                 
  1290 0000094D 49FFC0                  inc r8
  1291                                 
  1292 00000950 4D39E8                  cmp r8, r13
  1293 00000953 7CDB                    jl ..@52.printTillEnd
  1294                                 
  1295                                  ..@52.finalChecks:
  1296                                 
  1297                                  ..@52.noMorePrints:
  1298                                 
  1299 00000955 4C89D0                  mov rax, r10
  1300 00000958 49F7E6                  mul r14
  1301 0000095B 4801C4                  add rsp, rax
  1302                                  ..@52.endProgram_macro:
  1303                                 
  1304 0000095E 5D                      pop rbp
  1305 0000095F 5E                      pop rsi
  1306 00000960 5F                      pop rdi
  1307 00000961 415F                    pop r15
  1308 00000963 415E                    pop r14
  1309 00000965 415D                    pop r13
  1310 00000967 415C                    pop r12
  1311 00000969 415B                    pop r11
  1312 0000096B 415A                    pop r10
  1313 0000096D 59                      pop rcx
  1314 0000096E 5B                      pop rbx
  1315 0000096F 5A                      pop rdx
  1316 00000970 58                      pop rax
  1317                                 %line 527+1 ast03.asm
  1318                                 
  1319                                 %line 527+0 ast03.asm
  1320                                 
  1321 00000971 50                      push rax
  1322 00000972 52                      push rdx
  1323 00000973 53                      push rbx
  1324 00000974 51                      push rcx
  1325 00000975 4152                    push r10
  1326 00000977 4153                    push r11
  1327 00000979 4154                    push r12
  1328 0000097B 4155                    push r13
  1329 0000097D 4156                    push r14
  1330 0000097F 4157                    push r15
  1331 00000981 57                      push rdi
  1332 00000982 56                      push rsi
  1333 00000983 55                      push rbp
  1334 00000984 48C7C001000000          mov rax, 1
  1335 0000098B 48C7C701000000          mov rdi, 1
  1336 00000992 48C7C6[00000000]        mov rsi, endlMSG
  1337 00000999 48C7C201000000          mov rdx, 1
  1338 000009A0 0F05                    syscall
  1339                                 
  1340 000009A2 5D                      pop rbp
  1341 000009A3 5E                      pop rsi
  1342 000009A4 5F                      pop rdi
  1343 000009A5 415F                    pop r15
  1344 000009A7 415E                    pop r14
  1345 000009A9 415D                    pop r13
  1346 000009AB 415C                    pop r12
  1347 000009AD 415B                    pop r11
  1348 000009AF 415A                    pop r10
  1349 000009B1 59                      pop rcx
  1350 000009B2 5B                      pop rbx
  1351 000009B3 5A                      pop rdx
  1352 000009B4 58                      pop rax
  1353                                 %line 528+1 ast03.asm
  1354                                 
  1355                                 
  1356                                 %line 529+0 ast03.asm
  1357                                 
  1358 000009B5 50                      push rax
  1359 000009B6 52                      push rdx
  1360 000009B7 53                      push rbx
  1361 000009B8 51                      push rcx
  1362 000009B9 4152                    push r10
  1363 000009BB 4153                    push r11
  1364 000009BD 4154                    push r12
  1365 000009BF 4155                    push r13
  1366 000009C1 4156                    push r14
  1367 000009C3 4157                    push r15
  1368 000009C5 57                      push rdi
  1369 000009C6 56                      push rsi
  1370 000009C7 55                      push rbp
  1371 000009C8 48C7C001000000          mov rax, 1
  1372 000009CF 48C7C701000000          mov rdi, 1
  1373 000009D6 48C7C6[00000000]        mov rsi, averageMSG
  1374                                 
  1375                                 
  1376                                 
  1377 000009DD 48C7C200000000          mov rdx, 0
  1378                                  ..@60.notNull:
  1379                                 
  1380 000009E4 80BA[00000000]00        cmp byte[averageMSG+rdx], NULL
  1381 000009EB 7403                    je ..@60.NullFound
  1382                                 
  1383                                 
  1384 000009ED 48FFC2                  inc rdx
  1385                                 
  1386 000009F0 EBF0                    jmp ..@60.notNull
  1387                                  ..@60.NullFound
  1388 000009F2 0F05                    syscall
  1389                                 
  1390                                 
  1391 000009F4 48C7C001000000          mov rax, 1
  1392 000009FB 48C7C701000000          mov rdi, 1
  1393 00000A02 48C7C6[00000000]        mov rsi, spaceMSG
  1394 00000A09 48C7C201000000          mov rdx, 1
  1395 00000A10 0F05                    syscall
  1396                                 
  1397 00000A12 5D                      pop rbp
  1398 00000A13 5E                      pop rsi
  1399 00000A14 5F                      pop rdi
  1400 00000A15 415F                    pop r15
  1401 00000A17 415E                    pop r14
  1402 00000A19 415D                    pop r13
  1403 00000A1B 415C                    pop r12
  1404 00000A1D 415B                    pop r11
  1405 00000A1F 415A                    pop r10
  1406 00000A21 59                      pop rcx
  1407 00000A22 5B                      pop rbx
  1408 00000A23 5A                      pop rdx
  1409 00000A24 58                      pop rax
  1410                                 %line 530+1 ast03.asm
  1411                                 
  1412                                 %line 530+0 ast03.asm
  1413                                 
  1414                                 
  1415                                 
  1416                                 
  1417                                 
  1418 00000A25 50                      push rax
  1419 00000A26 52                      push rdx
  1420 00000A27 53                      push rbx
  1421 00000A28 51                      push rcx
  1422 00000A29 4152                    push r10
  1423 00000A2B 4153                    push r11
  1424 00000A2D 4154                    push r12
  1425 00000A2F 4155                    push r13
  1426 00000A31 4156                    push r14
  1427 00000A33 4157                    push r15
  1428 00000A35 57                      push rdi
  1429 00000A36 56                      push rsi
  1430 00000A37 55                      push rbp
  1431 00000A38 488B0425[00000000]      mov rax, qword[average]
  1432 00000A40 49C7C200000000          mov r10, 0
  1433 00000A47 49C7C30A000000          mov r11, 10
  1434 00000A4E 49C7C608000000          mov r14, 8
  1435 00000A55 49C7C700000000          mov r15, 0
  1436 00000A5C 48C7C6FFFFFFFF          mov rsi, -1
  1437                                 
  1438                                  ..@62.startConversion:
  1439 00000A63 4883F800                cmp rax, 0
  1440 00000A67 7424                    je ..@62.printNumberInternal
  1441                                 
  1442 00000A69 4883F800                cmp rax, 0
  1443 00000A6D 7C12                    jl ..@62.negativeDivision
  1444                                 
  1445                                 
  1446                                 
  1447 00000A6F 48C7C200000000          mov rdx, 0
  1448 00000A76 49F7F3                  div r11
  1449 00000A79 4883C230                add rdx, 48
  1450 00000A7D 52                      push rdx
  1451 00000A7E 49FFC2                  inc r10
  1452 00000A81 EBDE                    jmp ..@62.startConversion
  1453                                 
  1454                                  ..@62.negativeDivision:
  1455                                 
  1456 00000A83 49C7C701000000          mov r15, 1
  1457 00000A8A 48F7EE                  imul rsi
  1458 00000A8D EBD2                    jmp ..@62.startConversion
  1459                                  ..@62.printNumberInternal:
  1460 00000A8F 4983FF00                cmp r15, 0
  1461 00000A93 741C                    je ..@62.noNegative
  1462                                 
  1463 00000A95 48C7C001000000          mov rax, 1
  1464 00000A9C 48C7C701000000          mov rdi, 1
  1465 00000AA3 48C7C6[00000000]        mov rsi, negSign
  1466 00000AAA 48C7C201000000          mov rdx, 1
  1467 00000AB1 0F05                    syscall
  1468                                 
  1469                                  ..@62.noNegative:
  1470 00000AB3 4983FA00                cmp r10, 0
  1471 00000AB7 7527                    jne ..@62.printNumberInteral2
  1472                                 
  1473                                 
  1474                                 
  1475                                 
  1476 00000AB9 4983C230                add r10, 48
  1477 00000ABD 4152                    push r10
  1478                                 
  1479 00000ABF 48C7C001000000          mov rax, 1
  1480 00000AC6 48C7C701000000          mov rdi, 1
  1481 00000ACD 488D3424                lea rsi, qword[rsp]
  1482 00000AD1 48C7C201000000          mov rdx, 1
  1483 00000AD8 0F05                    syscall
  1484                                 
  1485 00000ADA 415A                    pop r10
  1486 00000ADC 4983EA30                sub r10, 48
  1487 00000AE0 EB2B                    jmp ..@62.finalChecks
  1488                                 
  1489                                  ..@62.printNumberInteral2:
  1490                                 
  1491 00000AE2 49C7C000000000          mov r8, 0
  1492 00000AE9 4D89D5                  mov r13, r10
  1493                                  ..@62.printTillEnd:
  1494                                 
  1495 00000AEC 48C7C001000000          mov rax, 1
  1496 00000AF3 48C7C701000000          mov rdi, 1
  1497 00000AFA 4A8D34C4                lea rsi, qword[rsp+r8*8]
  1498 00000AFE 48C7C201000000          mov rdx, 1
  1499 00000B05 0F05                    syscall
  1500                                 
  1501                                 
  1502 00000B07 49FFC0                  inc r8
  1503                                 
  1504 00000B0A 4D39E8                  cmp r8, r13
  1505 00000B0D 7CDB                    jl ..@62.printTillEnd
  1506                                 
  1507                                  ..@62.finalChecks:
  1508                                 
  1509                                  ..@62.noMorePrints:
  1510                                 
  1511 00000B0F 4C89D0                  mov rax, r10
  1512 00000B12 49F7E6                  mul r14
  1513 00000B15 4801C4                  add rsp, rax
  1514                                  ..@62.endProgram_macro:
  1515                                 
  1516 00000B18 5D                      pop rbp
  1517 00000B19 5E                      pop rsi
  1518 00000B1A 5F                      pop rdi
  1519 00000B1B 415F                    pop r15
  1520 00000B1D 415E                    pop r14
  1521 00000B1F 415D                    pop r13
  1522 00000B21 415C                    pop r12
  1523 00000B23 415B                    pop r11
  1524 00000B25 415A                    pop r10
  1525 00000B27 59                      pop rcx
  1526 00000B28 5B                      pop rbx
  1527 00000B29 5A                      pop rdx
  1528 00000B2A 58                      pop rax
  1529                                 %line 531+1 ast03.asm
  1530                                 
  1531                                 %line 531+0 ast03.asm
  1532                                 
  1533 00000B2B 50                      push rax
  1534 00000B2C 52                      push rdx
  1535 00000B2D 53                      push rbx
  1536 00000B2E 51                      push rcx
  1537 00000B2F 4152                    push r10
  1538 00000B31 4153                    push r11
  1539 00000B33 4154                    push r12
  1540 00000B35 4155                    push r13
  1541 00000B37 4156                    push r14
  1542 00000B39 4157                    push r15
  1543 00000B3B 57                      push rdi
  1544 00000B3C 56                      push rsi
  1545 00000B3D 55                      push rbp
  1546 00000B3E 48C7C001000000          mov rax, 1
  1547 00000B45 48C7C701000000          mov rdi, 1
  1548 00000B4C 48C7C6[00000000]        mov rsi, endlMSG
  1549 00000B53 48C7C201000000          mov rdx, 1
  1550 00000B5A 0F05                    syscall
  1551                                 
  1552 00000B5C 5D                      pop rbp
  1553 00000B5D 5E                      pop rsi
  1554 00000B5E 5F                      pop rdi
  1555 00000B5F 415F                    pop r15
  1556 00000B61 415E                    pop r14
  1557 00000B63 415D                    pop r13
  1558 00000B65 415C                    pop r12
  1559 00000B67 415B                    pop r11
  1560 00000B69 415A                    pop r10
  1561 00000B6B 59                      pop rcx
  1562 00000B6C 5B                      pop rbx
  1563 00000B6D 5A                      pop rdx
  1564 00000B6E 58                      pop rax
  1565                                 %line 532+1 ast03.asm
  1566                                 
  1567                                 
  1568                                 %line 533+0 ast03.asm
  1569                                 
  1570 00000B6F 50                      push rax
  1571 00000B70 52                      push rdx
  1572 00000B71 53                      push rbx
  1573 00000B72 51                      push rcx
  1574 00000B73 4152                    push r10
  1575 00000B75 4153                    push r11
  1576 00000B77 4154                    push r12
  1577 00000B79 4155                    push r13
  1578 00000B7B 4156                    push r14
  1579 00000B7D 4157                    push r15
  1580 00000B7F 57                      push rdi
  1581 00000B80 56                      push rsi
  1582 00000B81 55                      push rbp
  1583 00000B82 48C7C001000000          mov rax, 1
  1584 00000B89 48C7C701000000          mov rdi, 1
  1585 00000B90 48C7C6[00000000]        mov rsi, medianMSG
  1586                                 
  1587                                 
  1588                                 
  1589 00000B97 48C7C200000000          mov rdx, 0
  1590                                  ..@70.notNull:
  1591                                 
  1592 00000B9E 80BA[00000000]00        cmp byte[medianMSG+rdx], NULL
  1593 00000BA5 7403                    je ..@70.NullFound
  1594                                 
  1595                                 
  1596 00000BA7 48FFC2                  inc rdx
  1597                                 
  1598 00000BAA EBF0                    jmp ..@70.notNull
  1599                                  ..@70.NullFound
  1600 00000BAC 0F05                    syscall
  1601                                 
  1602                                 
  1603 00000BAE 48C7C001000000          mov rax, 1
  1604 00000BB5 48C7C701000000          mov rdi, 1
  1605 00000BBC 48C7C6[00000000]        mov rsi, spaceMSG
  1606 00000BC3 48C7C201000000          mov rdx, 1
  1607 00000BCA 0F05                    syscall
  1608                                 
  1609 00000BCC 5D                      pop rbp
  1610 00000BCD 5E                      pop rsi
  1611 00000BCE 5F                      pop rdi
  1612 00000BCF 415F                    pop r15
  1613 00000BD1 415E                    pop r14
  1614 00000BD3 415D                    pop r13
  1615 00000BD5 415C                    pop r12
  1616 00000BD7 415B                    pop r11
  1617 00000BD9 415A                    pop r10
  1618 00000BDB 59                      pop rcx
  1619 00000BDC 5B                      pop rbx
  1620 00000BDD 5A                      pop rdx
  1621 00000BDE 58                      pop rax
  1622                                 %line 534+1 ast03.asm
  1623                                 
  1624                                 %line 534+0 ast03.asm
  1625                                 
  1626                                 
  1627                                 
  1628                                 
  1629                                 
  1630 00000BDF 50                      push rax
  1631 00000BE0 52                      push rdx
  1632 00000BE1 53                      push rbx
  1633 00000BE2 51                      push rcx
  1634 00000BE3 4152                    push r10
  1635 00000BE5 4153                    push r11
  1636 00000BE7 4154                    push r12
  1637 00000BE9 4155                    push r13
  1638 00000BEB 4156                    push r14
  1639 00000BED 4157                    push r15
  1640 00000BEF 57                      push rdi
  1641 00000BF0 56                      push rsi
  1642 00000BF1 55                      push rbp
  1643 00000BF2 488B0425[00000000]      mov rax, qword[estMedian]
  1644 00000BFA 49C7C200000000          mov r10, 0
  1645 00000C01 49C7C30A000000          mov r11, 10
  1646 00000C08 49C7C608000000          mov r14, 8
  1647 00000C0F 49C7C700000000          mov r15, 0
  1648 00000C16 48C7C6FFFFFFFF          mov rsi, -1
  1649                                 
  1650                                  ..@72.startConversion:
  1651 00000C1D 4883F800                cmp rax, 0
  1652 00000C21 7424                    je ..@72.printNumberInternal
  1653                                 
  1654 00000C23 4883F800                cmp rax, 0
  1655 00000C27 7C12                    jl ..@72.negativeDivision
  1656                                 
  1657                                 
  1658                                 
  1659 00000C29 48C7C200000000          mov rdx, 0
  1660 00000C30 49F7F3                  div r11
  1661 00000C33 4883C230                add rdx, 48
  1662 00000C37 52                      push rdx
  1663 00000C38 49FFC2                  inc r10
  1664 00000C3B EBDE                    jmp ..@72.startConversion
  1665                                 
  1666                                  ..@72.negativeDivision:
  1667                                 
  1668 00000C3D 49C7C701000000          mov r15, 1
  1669 00000C44 48F7EE                  imul rsi
  1670 00000C47 EBD2                    jmp ..@72.startConversion
  1671                                  ..@72.printNumberInternal:
  1672 00000C49 4983FF00                cmp r15, 0
  1673 00000C4D 741C                    je ..@72.noNegative
  1674                                 
  1675 00000C4F 48C7C001000000          mov rax, 1
  1676 00000C56 48C7C701000000          mov rdi, 1
  1677 00000C5D 48C7C6[00000000]        mov rsi, negSign
  1678 00000C64 48C7C201000000          mov rdx, 1
  1679 00000C6B 0F05                    syscall
  1680                                 
  1681                                  ..@72.noNegative:
  1682 00000C6D 4983FA00                cmp r10, 0
  1683 00000C71 7527                    jne ..@72.printNumberInteral2
  1684                                 
  1685                                 
  1686                                 
  1687                                 
  1688 00000C73 4983C230                add r10, 48
  1689 00000C77 4152                    push r10
  1690                                 
  1691 00000C79 48C7C001000000          mov rax, 1
  1692 00000C80 48C7C701000000          mov rdi, 1
  1693 00000C87 488D3424                lea rsi, qword[rsp]
  1694 00000C8B 48C7C201000000          mov rdx, 1
  1695 00000C92 0F05                    syscall
  1696                                 
  1697 00000C94 415A                    pop r10
  1698 00000C96 4983EA30                sub r10, 48
  1699 00000C9A EB2B                    jmp ..@72.finalChecks
  1700                                 
  1701                                  ..@72.printNumberInteral2:
  1702                                 
  1703 00000C9C 49C7C000000000          mov r8, 0
  1704 00000CA3 4D89D5                  mov r13, r10
  1705                                  ..@72.printTillEnd:
  1706                                 
  1707 00000CA6 48C7C001000000          mov rax, 1
  1708 00000CAD 48C7C701000000          mov rdi, 1
  1709 00000CB4 4A8D34C4                lea rsi, qword[rsp+r8*8]
  1710 00000CB8 48C7C201000000          mov rdx, 1
  1711 00000CBF 0F05                    syscall
  1712                                 
  1713                                 
  1714 00000CC1 49FFC0                  inc r8
  1715                                 
  1716 00000CC4 4D39E8                  cmp r8, r13
  1717 00000CC7 7CDB                    jl ..@72.printTillEnd
  1718                                 
  1719                                  ..@72.finalChecks:
  1720                                 
  1721                                  ..@72.noMorePrints:
  1722                                 
  1723 00000CC9 4C89D0                  mov rax, r10
  1724 00000CCC 49F7E6                  mul r14
  1725 00000CCF 4801C4                  add rsp, rax
  1726                                  ..@72.endProgram_macro:
  1727                                 
  1728 00000CD2 5D                      pop rbp
  1729 00000CD3 5E                      pop rsi
  1730 00000CD4 5F                      pop rdi
  1731 00000CD5 415F                    pop r15
  1732 00000CD7 415E                    pop r14
  1733 00000CD9 415D                    pop r13
  1734 00000CDB 415C                    pop r12
  1735 00000CDD 415B                    pop r11
  1736 00000CDF 415A                    pop r10
  1737 00000CE1 59                      pop rcx
  1738 00000CE2 5B                      pop rbx
  1739 00000CE3 5A                      pop rdx
  1740 00000CE4 58                      pop rax
  1741                                 %line 535+1 ast03.asm
  1742                                 
  1743                                 %line 535+0 ast03.asm
  1744                                 
  1745 00000CE5 50                      push rax
  1746 00000CE6 52                      push rdx
  1747 00000CE7 53                      push rbx
  1748 00000CE8 51                      push rcx
  1749 00000CE9 4152                    push r10
  1750 00000CEB 4153                    push r11
  1751 00000CED 4154                    push r12
  1752 00000CEF 4155                    push r13
  1753 00000CF1 4156                    push r14
  1754 00000CF3 4157                    push r15
  1755 00000CF5 57                      push rdi
  1756 00000CF6 56                      push rsi
  1757 00000CF7 55                      push rbp
  1758 00000CF8 48C7C001000000          mov rax, 1
  1759 00000CFF 48C7C701000000          mov rdi, 1
  1760 00000D06 48C7C6[00000000]        mov rsi, endlMSG
  1761 00000D0D 48C7C201000000          mov rdx, 1
  1762 00000D14 0F05                    syscall
  1763                                 
  1764 00000D16 5D                      pop rbp
  1765 00000D17 5E                      pop rsi
  1766 00000D18 5F                      pop rdi
  1767 00000D19 415F                    pop r15
  1768 00000D1B 415E                    pop r14
  1769 00000D1D 415D                    pop r13
  1770 00000D1F 415C                    pop r12
  1771 00000D21 415B                    pop r11
  1772 00000D23 415A                    pop r10
  1773 00000D25 59                      pop rcx
  1774 00000D26 5B                      pop rbx
  1775 00000D27 5A                      pop rdx
  1776 00000D28 58                      pop rax
  1777                                 %line 536+1 ast03.asm
  1778                                 
  1779                                 %line 536+0 ast03.asm
  1780                                 
  1781 00000D29 50                      push rax
  1782 00000D2A 52                      push rdx
  1783 00000D2B 53                      push rbx
  1784 00000D2C 51                      push rcx
  1785 00000D2D 4152                    push r10
  1786 00000D2F 4153                    push r11
  1787 00000D31 4154                    push r12
  1788 00000D33 4155                    push r13
  1789 00000D35 4156                    push r14
  1790 00000D37 4157                    push r15
  1791 00000D39 57                      push rdi
  1792 00000D3A 56                      push rsi
  1793 00000D3B 55                      push rbp
  1794 00000D3C 48C7C001000000          mov rax, 1
  1795 00000D43 48C7C701000000          mov rdi, 1
  1796 00000D4A 48C7C6[00000000]        mov rsi, endlMSG
  1797 00000D51 48C7C201000000          mov rdx, 1
  1798 00000D58 0F05                    syscall
  1799                                 
  1800 00000D5A 5D                      pop rbp
  1801 00000D5B 5E                      pop rsi
  1802 00000D5C 5F                      pop rdi
  1803 00000D5D 415F                    pop r15
  1804 00000D5F 415E                    pop r14
  1805 00000D61 415D                    pop r13
  1806 00000D63 415C                    pop r12
  1807 00000D65 415B                    pop r11
  1808 00000D67 415A                    pop r10
  1809 00000D69 59                      pop rcx
  1810 00000D6A 5B                      pop rbx
  1811 00000D6B 5A                      pop rdx
  1812 00000D6C 58                      pop rax
  1813                                 %line 537+1 ast03.asm
  1814                                 
  1815                                 
  1816                                 %line 538+0 ast03.asm
  1817                                 
  1818 00000D6D 50                      push rax
  1819 00000D6E 52                      push rdx
  1820 00000D6F 53                      push rbx
  1821 00000D70 51                      push rcx
  1822 00000D71 4152                    push r10
  1823 00000D73 4153                    push r11
  1824 00000D75 4154                    push r12
  1825 00000D77 4155                    push r13
  1826 00000D79 4156                    push r14
  1827 00000D7B 4157                    push r15
  1828 00000D7D 57                      push rdi
  1829 00000D7E 56                      push rsi
  1830 00000D7F 55                      push rbp
  1831 00000D80 48C7C001000000          mov rax, 1
  1832 00000D87 48C7C701000000          mov rdi, 1
  1833 00000D8E 48C7C6[00000000]        mov rsi, stars
  1834                                 
  1835                                 
  1836                                 
  1837 00000D95 48C7C200000000          mov rdx, 0
  1838                                  ..@83.notNull:
  1839                                 
  1840 00000D9C 80BA[00000000]00        cmp byte[stars+rdx], NULL
  1841 00000DA3 7403                    je ..@83.NullFound
  1842                                 
  1843                                 
  1844 00000DA5 48FFC2                  inc rdx
  1845                                 
  1846 00000DA8 EBF0                    jmp ..@83.notNull
  1847                                  ..@83.NullFound
  1848 00000DAA 0F05                    syscall
  1849                                 
  1850                                 
  1851 00000DAC 48C7C001000000          mov rax, 1
  1852 00000DB3 48C7C701000000          mov rdi, 1
  1853 00000DBA 48C7C6[00000000]        mov rsi, spaceMSG
  1854 00000DC1 48C7C201000000          mov rdx, 1
  1855 00000DC8 0F05                    syscall
  1856                                 
  1857 00000DCA 5D                      pop rbp
  1858 00000DCB 5E                      pop rsi
  1859 00000DCC 5F                      pop rdi
  1860 00000DCD 415F                    pop r15
  1861 00000DCF 415E                    pop r14
  1862 00000DD1 415D                    pop r13
  1863 00000DD3 415C                    pop r12
  1864 00000DD5 415B                    pop r11
  1865 00000DD7 415A                    pop r10
  1866 00000DD9 59                      pop rcx
  1867 00000DDA 5B                      pop rbx
  1868 00000DDB 5A                      pop rdx
  1869 00000DDC 58                      pop rax
  1870                                 %line 539+1 ast03.asm
  1871                                 
  1872                                 %line 539+0 ast03.asm
  1873                                 
  1874 00000DDD 50                      push rax
  1875 00000DDE 52                      push rdx
  1876 00000DDF 53                      push rbx
  1877 00000DE0 51                      push rcx
  1878 00000DE1 4152                    push r10
  1879 00000DE3 4153                    push r11
  1880 00000DE5 4154                    push r12
  1881 00000DE7 4155                    push r13
  1882 00000DE9 4156                    push r14
  1883 00000DEB 4157                    push r15
  1884 00000DED 57                      push rdi
  1885 00000DEE 56                      push rsi
  1886 00000DEF 55                      push rbp
  1887 00000DF0 48C7C001000000          mov rax, 1
  1888 00000DF7 48C7C701000000          mov rdi, 1
  1889 00000DFE 48C7C6[00000000]        mov rsi, endlMSG
  1890 00000E05 48C7C201000000          mov rdx, 1
  1891 00000E0C 0F05                    syscall
  1892                                 
  1893 00000E0E 5D                      pop rbp
  1894 00000E0F 5E                      pop rsi
  1895 00000E10 5F                      pop rdi
  1896 00000E11 415F                    pop r15
  1897 00000E13 415E                    pop r14
  1898 00000E15 415D                    pop r13
  1899 00000E17 415C                    pop r12
  1900 00000E19 415B                    pop r11
  1901 00000E1B 415A                    pop r10
  1902 00000E1D 59                      pop rcx
  1903 00000E1E 5B                      pop rbx
  1904 00000E1F 5A                      pop rdx
  1905 00000E20 58                      pop rax
  1906                                 %line 540+1 ast03.asm
  1907                                 
  1908                                 %line 540+0 ast03.asm
  1909                                 
  1910 00000E21 50                      push rax
  1911 00000E22 52                      push rdx
  1912 00000E23 53                      push rbx
  1913 00000E24 51                      push rcx
  1914 00000E25 4152                    push r10
  1915 00000E27 4153                    push r11
  1916 00000E29 4154                    push r12
  1917 00000E2B 4155                    push r13
  1918 00000E2D 4156                    push r14
  1919 00000E2F 4157                    push r15
  1920 00000E31 57                      push rdi
  1921 00000E32 56                      push rsi
  1922 00000E33 55                      push rbp
  1923 00000E34 48C7C001000000          mov rax, 1
  1924 00000E3B 48C7C701000000          mov rdi, 1
  1925 00000E42 48C7C6[00000000]        mov rsi, sevenCheckMSG
  1926                                 
  1927                                 
  1928                                 
  1929 00000E49 48C7C200000000          mov rdx, 0
  1930                                  ..@90.notNull:
  1931                                 
  1932 00000E50 80BA[00000000]00        cmp byte[sevenCheckMSG+rdx], NULL
  1933 00000E57 7403                    je ..@90.NullFound
  1934                                 
  1935                                 
  1936 00000E59 48FFC2                  inc rdx
  1937                                 
  1938 00000E5C EBF0                    jmp ..@90.notNull
  1939                                  ..@90.NullFound
  1940 00000E5E 0F05                    syscall
  1941                                 
  1942                                 
  1943 00000E60 48C7C001000000          mov rax, 1
  1944 00000E67 48C7C701000000          mov rdi, 1
  1945 00000E6E 48C7C6[00000000]        mov rsi, spaceMSG
  1946 00000E75 48C7C201000000          mov rdx, 1
  1947 00000E7C 0F05                    syscall
  1948                                 
  1949 00000E7E 5D                      pop rbp
  1950 00000E7F 5E                      pop rsi
  1951 00000E80 5F                      pop rdi
  1952 00000E81 415F                    pop r15
  1953 00000E83 415E                    pop r14
  1954 00000E85 415D                    pop r13
  1955 00000E87 415C                    pop r12
  1956 00000E89 415B                    pop r11
  1957 00000E8B 415A                    pop r10
  1958 00000E8D 59                      pop rcx
  1959 00000E8E 5B                      pop rbx
  1960 00000E8F 5A                      pop rdx
  1961 00000E90 58                      pop rax
  1962                                 %line 541+1 ast03.asm
  1963                                 
  1964                                 %line 541+0 ast03.asm
  1965                                 
  1966 00000E91 50                      push rax
  1967 00000E92 52                      push rdx
  1968 00000E93 53                      push rbx
  1969 00000E94 51                      push rcx
  1970 00000E95 4152                    push r10
  1971 00000E97 4153                    push r11
  1972 00000E99 4154                    push r12
  1973 00000E9B 4155                    push r13
  1974 00000E9D 4156                    push r14
  1975 00000E9F 4157                    push r15
  1976 00000EA1 57                      push rdi
  1977 00000EA2 56                      push rsi
  1978 00000EA3 55                      push rbp
  1979 00000EA4 48C7C001000000          mov rax, 1
  1980 00000EAB 48C7C701000000          mov rdi, 1
  1981 00000EB2 48C7C6[00000000]        mov rsi, endlMSG
  1982 00000EB9 48C7C201000000          mov rdx, 1
  1983 00000EC0 0F05                    syscall
  1984                                 
  1985 00000EC2 5D                      pop rbp
  1986 00000EC3 5E                      pop rsi
  1987 00000EC4 5F                      pop rdi
  1988 00000EC5 415F                    pop r15
  1989 00000EC7 415E                    pop r14
  1990 00000EC9 415D                    pop r13
  1991 00000ECB 415C                    pop r12
  1992 00000ECD 415B                    pop r11
  1993 00000ECF 415A                    pop r10
  1994 00000ED1 59                      pop rcx
  1995 00000ED2 5B                      pop rbx
  1996 00000ED3 5A                      pop rdx
  1997 00000ED4 58                      pop rax
  1998                                 %line 542+1 ast03.asm
  1999                                 
  2000                                 %line 542+0 ast03.asm
  2001                                 
  2002 00000ED5 50                      push rax
  2003 00000ED6 52                      push rdx
  2004 00000ED7 53                      push rbx
  2005 00000ED8 51                      push rcx
  2006 00000ED9 4152                    push r10
  2007 00000EDB 4153                    push r11
  2008 00000EDD 4154                    push r12
  2009 00000EDF 4155                    push r13
  2010 00000EE1 4156                    push r14
  2011 00000EE3 4157                    push r15
  2012 00000EE5 57                      push rdi
  2013 00000EE6 56                      push rsi
  2014 00000EE7 55                      push rbp
  2015 00000EE8 48C7C001000000          mov rax, 1
  2016 00000EEF 48C7C701000000          mov rdi, 1
  2017 00000EF6 48C7C6[00000000]        mov rsi, stars
  2018                                 
  2019                                 
  2020                                 
  2021 00000EFD 48C7C200000000          mov rdx, 0
  2022                                  ..@97.notNull:
  2023                                 
  2024 00000F04 80BA[00000000]00        cmp byte[stars+rdx], NULL
  2025 00000F0B 7403                    je ..@97.NullFound
  2026                                 
  2027                                 
  2028 00000F0D 48FFC2                  inc rdx
  2029                                 
  2030 00000F10 EBF0                    jmp ..@97.notNull
  2031                                  ..@97.NullFound
  2032 00000F12 0F05                    syscall
  2033                                 
  2034                                 
  2035 00000F14 48C7C001000000          mov rax, 1
  2036 00000F1B 48C7C701000000          mov rdi, 1
  2037 00000F22 48C7C6[00000000]        mov rsi, spaceMSG
  2038 00000F29 48C7C201000000          mov rdx, 1
  2039 00000F30 0F05                    syscall
  2040                                 
  2041 00000F32 5D                      pop rbp
  2042 00000F33 5E                      pop rsi
  2043 00000F34 5F                      pop rdi
  2044 00000F35 415F                    pop r15
  2045 00000F37 415E                    pop r14
  2046 00000F39 415D                    pop r13
  2047 00000F3B 415C                    pop r12
  2048 00000F3D 415B                    pop r11
  2049 00000F3F 415A                    pop r10
  2050 00000F41 59                      pop rcx
  2051 00000F42 5B                      pop rbx
  2052 00000F43 5A                      pop rdx
  2053 00000F44 58                      pop rax
  2054                                 %line 543+1 ast03.asm
  2055                                 
  2056                                 %line 543+0 ast03.asm
  2057                                 
  2058 00000F45 50                      push rax
  2059 00000F46 52                      push rdx
  2060 00000F47 53                      push rbx
  2061 00000F48 51                      push rcx
  2062 00000F49 4152                    push r10
  2063 00000F4B 4153                    push r11
  2064 00000F4D 4154                    push r12
  2065 00000F4F 4155                    push r13
  2066 00000F51 4156                    push r14
  2067 00000F53 4157                    push r15
  2068 00000F55 57                      push rdi
  2069 00000F56 56                      push rsi
  2070 00000F57 55                      push rbp
  2071 00000F58 48C7C001000000          mov rax, 1
  2072 00000F5F 48C7C701000000          mov rdi, 1
  2073 00000F66 48C7C6[00000000]        mov rsi, endlMSG
  2074 00000F6D 48C7C201000000          mov rdx, 1
  2075 00000F74 0F05                    syscall
  2076                                 
  2077 00000F76 5D                      pop rbp
  2078 00000F77 5E                      pop rsi
  2079 00000F78 5F                      pop rdi
  2080 00000F79 415F                    pop r15
  2081 00000F7B 415E                    pop r14
  2082 00000F7D 415D                    pop r13
  2083 00000F7F 415C                    pop r12
  2084 00000F81 415B                    pop r11
  2085 00000F83 415A                    pop r10
  2086 00000F85 59                      pop rcx
  2087 00000F86 5B                      pop rbx
  2088 00000F87 5A                      pop rdx
  2089 00000F88 58                      pop rax
  2090                                 %line 544+1 ast03.asm
  2091                                 
  2092                                 %line 544+0 ast03.asm
  2093                                 
  2094 00000F89 50                      push rax
  2095 00000F8A 52                      push rdx
  2096 00000F8B 53                      push rbx
  2097 00000F8C 51                      push rcx
  2098 00000F8D 4152                    push r10
  2099 00000F8F 4153                    push r11
  2100 00000F91 4154                    push r12
  2101 00000F93 4155                    push r13
  2102 00000F95 4156                    push r14
  2103 00000F97 4157                    push r15
  2104 00000F99 57                      push rdi
  2105 00000F9A 56                      push rsi
  2106 00000F9B 55                      push rbp
  2107 00000F9C 48C7C001000000          mov rax, 1
  2108 00000FA3 48C7C701000000          mov rdi, 1
  2109 00000FAA 48C7C6[00000000]        mov rsi, endlMSG
  2110 00000FB1 48C7C201000000          mov rdx, 1
  2111 00000FB8 0F05                    syscall
  2112                                 
  2113 00000FBA 5D                      pop rbp
  2114 00000FBB 5E                      pop rsi
  2115 00000FBC 5F                      pop rdi
  2116 00000FBD 415F                    pop r15
  2117 00000FBF 415E                    pop r14
  2118 00000FC1 415D                    pop r13
  2119 00000FC3 415C                    pop r12
  2120 00000FC5 415B                    pop r11
  2121 00000FC7 415A                    pop r10
  2122 00000FC9 59                      pop rcx
  2123 00000FCA 5B                      pop rbx
  2124 00000FCB 5A                      pop rdx
  2125 00000FCC 58                      pop rax
  2126                                 %line 545+1 ast03.asm
  2127                                 
  2128                                 
  2129                                 %line 546+0 ast03.asm
  2130                                 
  2131 00000FCD 50                      push rax
  2132 00000FCE 52                      push rdx
  2133 00000FCF 53                      push rbx
  2134 00000FD0 51                      push rcx
  2135 00000FD1 4152                    push r10
  2136 00000FD3 4153                    push r11
  2137 00000FD5 4154                    push r12
  2138 00000FD7 4155                    push r13
  2139 00000FD9 4156                    push r14
  2140 00000FDB 4157                    push r15
  2141 00000FDD 57                      push rdi
  2142 00000FDE 56                      push rsi
  2143 00000FDF 55                      push rbp
  2144 00000FE0 48C7C001000000          mov rax, 1
  2145 00000FE7 48C7C701000000          mov rdi, 1
  2146 00000FEE 48C7C6[00000000]        mov rsi, countMSG
  2147                                 
  2148                                 
  2149                                 
  2150 00000FF5 48C7C200000000          mov rdx, 0
  2151                                  ..@107.notNull:
  2152                                 
  2153 00000FFC 80BA[00000000]00        cmp byte[countMSG+rdx], NULL
  2154 00001003 7403                    je ..@107.NullFound
  2155                                 
  2156                                 
  2157 00001005 48FFC2                  inc rdx
  2158                                 
  2159 00001008 EBF0                    jmp ..@107.notNull
  2160                                  ..@107.NullFound
  2161 0000100A 0F05                    syscall
  2162                                 
  2163                                 
  2164 0000100C 48C7C001000000          mov rax, 1
  2165 00001013 48C7C701000000          mov rdi, 1
  2166 0000101A 48C7C6[00000000]        mov rsi, spaceMSG
  2167 00001021 48C7C201000000          mov rdx, 1
  2168 00001028 0F05                    syscall
  2169                                 
  2170 0000102A 5D                      pop rbp
  2171 0000102B 5E                      pop rsi
  2172 0000102C 5F                      pop rdi
  2173 0000102D 415F                    pop r15
  2174 0000102F 415E                    pop r14
  2175 00001031 415D                    pop r13
  2176 00001033 415C                    pop r12
  2177 00001035 415B                    pop r11
  2178 00001037 415A                    pop r10
  2179 00001039 59                      pop rcx
  2180 0000103A 5B                      pop rbx
  2181 0000103B 5A                      pop rdx
  2182 0000103C 58                      pop rax
  2183                                 %line 547+1 ast03.asm
  2184                                 
  2185                                 %line 547+0 ast03.asm
  2186                                 
  2187                                 
  2188                                 
  2189                                 
  2190                                 
  2191 0000103D 50                      push rax
  2192 0000103E 52                      push rdx
  2193 0000103F 53                      push rbx
  2194 00001040 51                      push rcx
  2195 00001041 4152                    push r10
  2196 00001043 4153                    push r11
  2197 00001045 4154                    push r12
  2198 00001047 4155                    push r13
  2199 00001049 4156                    push r14
  2200 0000104B 4157                    push r15
  2201 0000104D 57                      push rdi
  2202 0000104E 56                      push rsi
  2203 0000104F 55                      push rbp
  2204 00001050 488B0425[00000000]      mov rax, qword[countSeven]
  2205 00001058 49C7C200000000          mov r10, 0
  2206 0000105F 49C7C30A000000          mov r11, 10
  2207 00001066 49C7C608000000          mov r14, 8
  2208 0000106D 49C7C700000000          mov r15, 0
  2209 00001074 48C7C6FFFFFFFF          mov rsi, -1
  2210                                 
  2211                                  ..@109.startConversion:
  2212 0000107B 4883F800                cmp rax, 0
  2213 0000107F 7424                    je ..@109.printNumberInternal
  2214                                 
  2215 00001081 4883F800                cmp rax, 0
  2216 00001085 7C12                    jl ..@109.negativeDivision
  2217                                 
  2218                                 
  2219                                 
  2220 00001087 48C7C200000000          mov rdx, 0
  2221 0000108E 49F7F3                  div r11
  2222 00001091 4883C230                add rdx, 48
  2223 00001095 52                      push rdx
  2224 00001096 49FFC2                  inc r10
  2225 00001099 EBDE                    jmp ..@109.startConversion
  2226                                 
  2227                                  ..@109.negativeDivision:
  2228                                 
  2229 0000109B 49C7C701000000          mov r15, 1
  2230 000010A2 48F7EE                  imul rsi
  2231 000010A5 EBD2                    jmp ..@109.startConversion
  2232                                  ..@109.printNumberInternal:
  2233 000010A7 4983FF00                cmp r15, 0
  2234 000010AB 741C                    je ..@109.noNegative
  2235                                 
  2236 000010AD 48C7C001000000          mov rax, 1
  2237 000010B4 48C7C701000000          mov rdi, 1
  2238 000010BB 48C7C6[00000000]        mov rsi, negSign
  2239 000010C2 48C7C201000000          mov rdx, 1
  2240 000010C9 0F05                    syscall
  2241                                 
  2242                                  ..@109.noNegative:
  2243 000010CB 4983FA00                cmp r10, 0
  2244 000010CF 7527                    jne ..@109.printNumberInteral2
  2245                                 
  2246                                 
  2247                                 
  2248                                 
  2249 000010D1 4983C230                add r10, 48
  2250 000010D5 4152                    push r10
  2251                                 
  2252 000010D7 48C7C001000000          mov rax, 1
  2253 000010DE 48C7C701000000          mov rdi, 1
  2254 000010E5 488D3424                lea rsi, qword[rsp]
  2255 000010E9 48C7C201000000          mov rdx, 1
  2256 000010F0 0F05                    syscall
  2257                                 
  2258 000010F2 415A                    pop r10
  2259 000010F4 4983EA30                sub r10, 48
  2260 000010F8 EB2B                    jmp ..@109.finalChecks
  2261                                 
  2262                                  ..@109.printNumberInteral2:
  2263                                 
  2264 000010FA 49C7C000000000          mov r8, 0
  2265 00001101 4D89D5                  mov r13, r10
  2266                                  ..@109.printTillEnd:
  2267                                 
  2268 00001104 48C7C001000000          mov rax, 1
  2269 0000110B 48C7C701000000          mov rdi, 1
  2270 00001112 4A8D34C4                lea rsi, qword[rsp+r8*8]
  2271 00001116 48C7C201000000          mov rdx, 1
  2272 0000111D 0F05                    syscall
  2273                                 
  2274                                 
  2275 0000111F 49FFC0                  inc r8
  2276                                 
  2277 00001122 4D39E8                  cmp r8, r13
  2278 00001125 7CDB                    jl ..@109.printTillEnd
  2279                                 
  2280                                  ..@109.finalChecks:
  2281                                 
  2282                                  ..@109.noMorePrints:
  2283                                 
  2284 00001127 4C89D0                  mov rax, r10
  2285 0000112A 49F7E6                  mul r14
  2286 0000112D 4801C4                  add rsp, rax
  2287                                  ..@109.endProgram_macro:
  2288                                 
  2289 00001130 5D                      pop rbp
  2290 00001131 5E                      pop rsi
  2291 00001132 5F                      pop rdi
  2292 00001133 415F                    pop r15
  2293 00001135 415E                    pop r14
  2294 00001137 415D                    pop r13
  2295 00001139 415C                    pop r12
  2296 0000113B 415B                    pop r11
  2297 0000113D 415A                    pop r10
  2298 0000113F 59                      pop rcx
  2299 00001140 5B                      pop rbx
  2300 00001141 5A                      pop rdx
  2301 00001142 58                      pop rax
  2302                                 %line 548+1 ast03.asm
  2303                                 
  2304                                 %line 548+0 ast03.asm
  2305                                 
  2306 00001143 50                      push rax
  2307 00001144 52                      push rdx
  2308 00001145 53                      push rbx
  2309 00001146 51                      push rcx
  2310 00001147 4152                    push r10
  2311 00001149 4153                    push r11
  2312 0000114B 4154                    push r12
  2313 0000114D 4155                    push r13
  2314 0000114F 4156                    push r14
  2315 00001151 4157                    push r15
  2316 00001153 57                      push rdi
  2317 00001154 56                      push rsi
  2318 00001155 55                      push rbp
  2319 00001156 48C7C001000000          mov rax, 1
  2320 0000115D 48C7C701000000          mov rdi, 1
  2321 00001164 48C7C6[00000000]        mov rsi, endlMSG
  2322 0000116B 48C7C201000000          mov rdx, 1
  2323 00001172 0F05                    syscall
  2324                                 
  2325 00001174 5D                      pop rbp
  2326 00001175 5E                      pop rsi
  2327 00001176 5F                      pop rdi
  2328 00001177 415F                    pop r15
  2329 00001179 415E                    pop r14
  2330 0000117B 415D                    pop r13
  2331 0000117D 415C                    pop r12
  2332 0000117F 415B                    pop r11
  2333 00001181 415A                    pop r10
  2334 00001183 59                      pop rcx
  2335 00001184 5B                      pop rbx
  2336 00001185 5A                      pop rdx
  2337 00001186 58                      pop rax
  2338                                 %line 549+1 ast03.asm
  2339                                 
  2340                                 
  2341                                 %line 550+0 ast03.asm
  2342                                 
  2343 00001187 50                      push rax
  2344 00001188 52                      push rdx
  2345 00001189 53                      push rbx
  2346 0000118A 51                      push rcx
  2347 0000118B 4152                    push r10
  2348 0000118D 4153                    push r11
  2349 0000118F 4154                    push r12
  2350 00001191 4155                    push r13
  2351 00001193 4156                    push r14
  2352 00001195 4157                    push r15
  2353 00001197 57                      push rdi
  2354 00001198 56                      push rsi
  2355 00001199 55                      push rbp
  2356 0000119A 48C7C001000000          mov rax, 1
  2357 000011A1 48C7C701000000          mov rdi, 1
  2358 000011A8 48C7C6[00000000]        mov rsi, sumMSG
  2359                                 
  2360                                 
  2361                                 
  2362 000011AF 48C7C200000000          mov rdx, 0
  2363                                  ..@117.notNull:
  2364                                 
  2365 000011B6 80BA[00000000]00        cmp byte[sumMSG+rdx], NULL
  2366 000011BD 7403                    je ..@117.NullFound
  2367                                 
  2368                                 
  2369 000011BF 48FFC2                  inc rdx
  2370                                 
  2371 000011C2 EBF0                    jmp ..@117.notNull
  2372                                  ..@117.NullFound
  2373 000011C4 0F05                    syscall
  2374                                 
  2375                                 
  2376 000011C6 48C7C001000000          mov rax, 1
  2377 000011CD 48C7C701000000          mov rdi, 1
  2378 000011D4 48C7C6[00000000]        mov rsi, spaceMSG
  2379 000011DB 48C7C201000000          mov rdx, 1
  2380 000011E2 0F05                    syscall
  2381                                 
  2382 000011E4 5D                      pop rbp
  2383 000011E5 5E                      pop rsi
  2384 000011E6 5F                      pop rdi
  2385 000011E7 415F                    pop r15
  2386 000011E9 415E                    pop r14
  2387 000011EB 415D                    pop r13
  2388 000011ED 415C                    pop r12
  2389 000011EF 415B                    pop r11
  2390 000011F1 415A                    pop r10
  2391 000011F3 59                      pop rcx
  2392 000011F4 5B                      pop rbx
  2393 000011F5 5A                      pop rdx
  2394 000011F6 58                      pop rax
  2395                                 %line 551+1 ast03.asm
  2396                                 
  2397                                 %line 551+0 ast03.asm
  2398                                 
  2399                                 
  2400                                 
  2401                                 
  2402                                 
  2403 000011F7 50                      push rax
  2404 000011F8 52                      push rdx
  2405 000011F9 53                      push rbx
  2406 000011FA 51                      push rcx
  2407 000011FB 4152                    push r10
  2408 000011FD 4153                    push r11
  2409 000011FF 4154                    push r12
  2410 00001201 4155                    push r13
  2411 00001203 4156                    push r14
  2412 00001205 4157                    push r15
  2413 00001207 57                      push rdi
  2414 00001208 56                      push rsi
  2415 00001209 55                      push rbp
  2416 0000120A 488B0425[00000000]      mov rax, qword[sumSeven]
  2417 00001212 49C7C200000000          mov r10, 0
  2418 00001219 49C7C30A000000          mov r11, 10
  2419 00001220 49C7C608000000          mov r14, 8
  2420 00001227 49C7C700000000          mov r15, 0
  2421 0000122E 48C7C6FFFFFFFF          mov rsi, -1
  2422                                 
  2423                                  ..@119.startConversion:
  2424 00001235 4883F800                cmp rax, 0
  2425 00001239 7424                    je ..@119.printNumberInternal
  2426                                 
  2427 0000123B 4883F800                cmp rax, 0
  2428 0000123F 7C12                    jl ..@119.negativeDivision
  2429                                 
  2430                                 
  2431                                 
  2432 00001241 48C7C200000000          mov rdx, 0
  2433 00001248 49F7F3                  div r11
  2434 0000124B 4883C230                add rdx, 48
  2435 0000124F 52                      push rdx
  2436 00001250 49FFC2                  inc r10
  2437 00001253 EBDE                    jmp ..@119.startConversion
  2438                                 
  2439                                  ..@119.negativeDivision:
  2440                                 
  2441 00001255 49C7C701000000          mov r15, 1
  2442 0000125C 48F7EE                  imul rsi
  2443 0000125F EBD2                    jmp ..@119.startConversion
  2444                                  ..@119.printNumberInternal:
  2445 00001261 4983FF00                cmp r15, 0
  2446 00001265 741C                    je ..@119.noNegative
  2447                                 
  2448 00001267 48C7C001000000          mov rax, 1
  2449 0000126E 48C7C701000000          mov rdi, 1
  2450 00001275 48C7C6[00000000]        mov rsi, negSign
  2451 0000127C 48C7C201000000          mov rdx, 1
  2452 00001283 0F05                    syscall
  2453                                 
  2454                                  ..@119.noNegative:
  2455 00001285 4983FA00                cmp r10, 0
  2456 00001289 7527                    jne ..@119.printNumberInteral2
  2457                                 
  2458                                 
  2459                                 
  2460                                 
  2461 0000128B 4983C230                add r10, 48
  2462 0000128F 4152                    push r10
  2463                                 
  2464 00001291 48C7C001000000          mov rax, 1
  2465 00001298 48C7C701000000          mov rdi, 1
  2466 0000129F 488D3424                lea rsi, qword[rsp]
  2467 000012A3 48C7C201000000          mov rdx, 1
  2468 000012AA 0F05                    syscall
  2469                                 
  2470 000012AC 415A                    pop r10
  2471 000012AE 4983EA30                sub r10, 48
  2472 000012B2 EB2B                    jmp ..@119.finalChecks
  2473                                 
  2474                                  ..@119.printNumberInteral2:
  2475                                 
  2476 000012B4 49C7C000000000          mov r8, 0
  2477 000012BB 4D89D5                  mov r13, r10
  2478                                  ..@119.printTillEnd:
  2479                                 
  2480 000012BE 48C7C001000000          mov rax, 1
  2481 000012C5 48C7C701000000          mov rdi, 1
  2482 000012CC 4A8D34C4                lea rsi, qword[rsp+r8*8]
  2483 000012D0 48C7C201000000          mov rdx, 1
  2484 000012D7 0F05                    syscall
  2485                                 
  2486                                 
  2487 000012D9 49FFC0                  inc r8
  2488                                 
  2489 000012DC 4D39E8                  cmp r8, r13
  2490 000012DF 7CDB                    jl ..@119.printTillEnd
  2491                                 
  2492                                  ..@119.finalChecks:
  2493                                 
  2494                                  ..@119.noMorePrints:
  2495                                 
  2496 000012E1 4C89D0                  mov rax, r10
  2497 000012E4 49F7E6                  mul r14
  2498 000012E7 4801C4                  add rsp, rax
  2499                                  ..@119.endProgram_macro:
  2500                                 
  2501 000012EA 5D                      pop rbp
  2502 000012EB 5E                      pop rsi
  2503 000012EC 5F                      pop rdi
  2504 000012ED 415F                    pop r15
  2505 000012EF 415E                    pop r14
  2506 000012F1 415D                    pop r13
  2507 000012F3 415C                    pop r12
  2508 000012F5 415B                    pop r11
  2509 000012F7 415A                    pop r10
  2510 000012F9 59                      pop rcx
  2511 000012FA 5B                      pop rbx
  2512 000012FB 5A                      pop rdx
  2513 000012FC 58                      pop rax
  2514                                 %line 552+1 ast03.asm
  2515                                 
  2516                                 %line 552+0 ast03.asm
  2517                                 
  2518 000012FD 50                      push rax
  2519 000012FE 52                      push rdx
  2520 000012FF 53                      push rbx
  2521 00001300 51                      push rcx
  2522 00001301 4152                    push r10
  2523 00001303 4153                    push r11
  2524 00001305 4154                    push r12
  2525 00001307 4155                    push r13
  2526 00001309 4156                    push r14
  2527 0000130B 4157                    push r15
  2528 0000130D 57                      push rdi
  2529 0000130E 56                      push rsi
  2530 0000130F 55                      push rbp
  2531 00001310 48C7C001000000          mov rax, 1
  2532 00001317 48C7C701000000          mov rdi, 1
  2533 0000131E 48C7C6[00000000]        mov rsi, endlMSG
  2534 00001325 48C7C201000000          mov rdx, 1
  2535 0000132C 0F05                    syscall
  2536                                 
  2537 0000132E 5D                      pop rbp
  2538 0000132F 5E                      pop rsi
  2539 00001330 5F                      pop rdi
  2540 00001331 415F                    pop r15
  2541 00001333 415E                    pop r14
  2542 00001335 415D                    pop r13
  2543 00001337 415C                    pop r12
  2544 00001339 415B                    pop r11
  2545 0000133B 415A                    pop r10
  2546 0000133D 59                      pop rcx
  2547 0000133E 5B                      pop rbx
  2548 0000133F 5A                      pop rdx
  2549 00001340 58                      pop rax
  2550                                 %line 553+1 ast03.asm
  2551                                 
  2552                                 
  2553                                 %line 554+0 ast03.asm
  2554                                 
  2555 00001341 50                      push rax
  2556 00001342 52                      push rdx
  2557 00001343 53                      push rbx
  2558 00001344 51                      push rcx
  2559 00001345 4152                    push r10
  2560 00001347 4153                    push r11
  2561 00001349 4154                    push r12
  2562 0000134B 4155                    push r13
  2563 0000134D 4156                    push r14
  2564 0000134F 4157                    push r15
  2565 00001351 57                      push rdi
  2566 00001352 56                      push rsi
  2567 00001353 55                      push rbp
  2568 00001354 48C7C001000000          mov rax, 1
  2569 0000135B 48C7C701000000          mov rdi, 1
  2570 00001362 48C7C6[00000000]        mov rsi, averageMSG
  2571                                 
  2572                                 
  2573                                 
  2574 00001369 48C7C200000000          mov rdx, 0
  2575                                  ..@127.notNull:
  2576                                 
  2577 00001370 80BA[00000000]00        cmp byte[averageMSG+rdx], NULL
  2578 00001377 7403                    je ..@127.NullFound
  2579                                 
  2580                                 
  2581 00001379 48FFC2                  inc rdx
  2582                                 
  2583 0000137C EBF0                    jmp ..@127.notNull
  2584                                  ..@127.NullFound
  2585 0000137E 0F05                    syscall
  2586                                 
  2587                                 
  2588 00001380 48C7C001000000          mov rax, 1
  2589 00001387 48C7C701000000          mov rdi, 1
  2590 0000138E 48C7C6[00000000]        mov rsi, spaceMSG
  2591 00001395 48C7C201000000          mov rdx, 1
  2592 0000139C 0F05                    syscall
  2593                                 
  2594 0000139E 5D                      pop rbp
  2595 0000139F 5E                      pop rsi
  2596 000013A0 5F                      pop rdi
  2597 000013A1 415F                    pop r15
  2598 000013A3 415E                    pop r14
  2599 000013A5 415D                    pop r13
  2600 000013A7 415C                    pop r12
  2601 000013A9 415B                    pop r11
  2602 000013AB 415A                    pop r10
  2603 000013AD 59                      pop rcx
  2604 000013AE 5B                      pop rbx
  2605 000013AF 5A                      pop rdx
  2606 000013B0 58                      pop rax
  2607                                 %line 555+1 ast03.asm
  2608                                 
  2609                                 %line 555+0 ast03.asm
  2610                                 
  2611                                 
  2612                                 
  2613                                 
  2614                                 
  2615 000013B1 50                      push rax
  2616 000013B2 52                      push rdx
  2617 000013B3 53                      push rbx
  2618 000013B4 51                      push rcx
  2619 000013B5 4152                    push r10
  2620 000013B7 4153                    push r11
  2621 000013B9 4154                    push r12
  2622 000013BB 4155                    push r13
  2623 000013BD 4156                    push r14
  2624 000013BF 4157                    push r15
  2625 000013C1 57                      push rdi
  2626 000013C2 56                      push rsi
  2627 000013C3 55                      push rbp
  2628 000013C4 488B0425[00000000]      mov rax, qword[averageSeven]
  2629 000013CC 49C7C200000000          mov r10, 0
  2630 000013D3 49C7C30A000000          mov r11, 10
  2631 000013DA 49C7C608000000          mov r14, 8
  2632 000013E1 49C7C700000000          mov r15, 0
  2633 000013E8 48C7C6FFFFFFFF          mov rsi, -1
  2634                                 
  2635                                  ..@129.startConversion:
  2636 000013EF 4883F800                cmp rax, 0
  2637 000013F3 7424                    je ..@129.printNumberInternal
  2638                                 
  2639 000013F5 4883F800                cmp rax, 0
  2640 000013F9 7C12                    jl ..@129.negativeDivision
  2641                                 
  2642                                 
  2643                                 
  2644 000013FB 48C7C200000000          mov rdx, 0
  2645 00001402 49F7F3                  div r11
  2646 00001405 4883C230                add rdx, 48
  2647 00001409 52                      push rdx
  2648 0000140A 49FFC2                  inc r10
  2649 0000140D EBDE                    jmp ..@129.startConversion
  2650                                 
  2651                                  ..@129.negativeDivision:
  2652                                 
  2653 0000140F 49C7C701000000          mov r15, 1
  2654 00001416 48F7EE                  imul rsi
  2655 00001419 EBD2                    jmp ..@129.startConversion
  2656                                  ..@129.printNumberInternal:
  2657 0000141B 4983FF00                cmp r15, 0
  2658 0000141F 741C                    je ..@129.noNegative
  2659                                 
  2660 00001421 48C7C001000000          mov rax, 1
  2661 00001428 48C7C701000000          mov rdi, 1
  2662 0000142F 48C7C6[00000000]        mov rsi, negSign
  2663 00001436 48C7C201000000          mov rdx, 1
  2664 0000143D 0F05                    syscall
  2665                                 
  2666                                  ..@129.noNegative:
  2667 0000143F 4983FA00                cmp r10, 0
  2668 00001443 7527                    jne ..@129.printNumberInteral2
  2669                                 
  2670                                 
  2671                                 
  2672                                 
  2673 00001445 4983C230                add r10, 48
  2674 00001449 4152                    push r10
  2675                                 
  2676 0000144B 48C7C001000000          mov rax, 1
  2677 00001452 48C7C701000000          mov rdi, 1
  2678 00001459 488D3424                lea rsi, qword[rsp]
  2679 0000145D 48C7C201000000          mov rdx, 1
  2680 00001464 0F05                    syscall
  2681                                 
  2682 00001466 415A                    pop r10
  2683 00001468 4983EA30                sub r10, 48
  2684 0000146C EB2B                    jmp ..@129.finalChecks
  2685                                 
  2686                                  ..@129.printNumberInteral2:
  2687                                 
  2688 0000146E 49C7C000000000          mov r8, 0
  2689 00001475 4D89D5                  mov r13, r10
  2690                                  ..@129.printTillEnd:
  2691                                 
  2692 00001478 48C7C001000000          mov rax, 1
  2693 0000147F 48C7C701000000          mov rdi, 1
  2694 00001486 4A8D34C4                lea rsi, qword[rsp+r8*8]
  2695 0000148A 48C7C201000000          mov rdx, 1
  2696 00001491 0F05                    syscall
  2697                                 
  2698                                 
  2699 00001493 49FFC0                  inc r8
  2700                                 
  2701 00001496 4D39E8                  cmp r8, r13
  2702 00001499 7CDB                    jl ..@129.printTillEnd
  2703                                 
  2704                                  ..@129.finalChecks:
  2705                                 
  2706                                  ..@129.noMorePrints:
  2707                                 
  2708 0000149B 4C89D0                  mov rax, r10
  2709 0000149E 49F7E6                  mul r14
  2710 000014A1 4801C4                  add rsp, rax
  2711                                  ..@129.endProgram_macro:
  2712                                 
  2713 000014A4 5D                      pop rbp
  2714 000014A5 5E                      pop rsi
  2715 000014A6 5F                      pop rdi
  2716 000014A7 415F                    pop r15
  2717 000014A9 415E                    pop r14
  2718 000014AB 415D                    pop r13
  2719 000014AD 415C                    pop r12
  2720 000014AF 415B                    pop r11
  2721 000014B1 415A                    pop r10
  2722 000014B3 59                      pop rcx
  2723 000014B4 5B                      pop rbx
  2724 000014B5 5A                      pop rdx
  2725 000014B6 58                      pop rax
  2726                                 %line 556+1 ast03.asm
  2727                                 
  2728                                 %line 556+0 ast03.asm
  2729                                 
  2730 000014B7 50                      push rax
  2731 000014B8 52                      push rdx
  2732 000014B9 53                      push rbx
  2733 000014BA 51                      push rcx
  2734 000014BB 4152                    push r10
  2735 000014BD 4153                    push r11
  2736 000014BF 4154                    push r12
  2737 000014C1 4155                    push r13
  2738 000014C3 4156                    push r14
  2739 000014C5 4157                    push r15
  2740 000014C7 57                      push rdi
  2741 000014C8 56                      push rsi
  2742 000014C9 55                      push rbp
  2743 000014CA 48C7C001000000          mov rax, 1
  2744 000014D1 48C7C701000000          mov rdi, 1
  2745 000014D8 48C7C6[00000000]        mov rsi, endlMSG
  2746 000014DF 48C7C201000000          mov rdx, 1
  2747 000014E6 0F05                    syscall
  2748                                 
  2749 000014E8 5D                      pop rbp
  2750 000014E9 5E                      pop rsi
  2751 000014EA 5F                      pop rdi
  2752 000014EB 415F                    pop r15
  2753 000014ED 415E                    pop r14
  2754 000014EF 415D                    pop r13
  2755 000014F1 415C                    pop r12
  2756 000014F3 415B                    pop r11
  2757 000014F5 415A                    pop r10
  2758 000014F7 59                      pop rcx
  2759 000014F8 5B                      pop rbx
  2760 000014F9 5A                      pop rdx
  2761 000014FA 58                      pop rax
  2762                                 %line 557+1 ast03.asm
  2763                                 
  2764                                 
  2765                                 %line 558+0 ast03.asm
  2766                                 
  2767 000014FB 50                      push rax
  2768 000014FC 52                      push rdx
  2769 000014FD 53                      push rbx
  2770 000014FE 51                      push rcx
  2771 000014FF 4152                    push r10
  2772 00001501 4153                    push r11
  2773 00001503 4154                    push r12
  2774 00001505 4155                    push r13
  2775 00001507 4156                    push r14
  2776 00001509 4157                    push r15
  2777 0000150B 57                      push rdi
  2778 0000150C 56                      push rsi
  2779 0000150D 55                      push rbp
  2780 0000150E 48C7C001000000          mov rax, 1
  2781 00001515 48C7C701000000          mov rdi, 1
  2782 0000151C 48C7C6[00000000]        mov rsi, stars
  2783                                 
  2784                                 
  2785                                 
  2786 00001523 48C7C200000000          mov rdx, 0
  2787                                  ..@137.notNull:
  2788                                 
  2789 0000152A 80BA[00000000]00        cmp byte[stars+rdx], NULL
  2790 00001531 7403                    je ..@137.NullFound
  2791                                 
  2792                                 
  2793 00001533 48FFC2                  inc rdx
  2794                                 
  2795 00001536 EBF0                    jmp ..@137.notNull
  2796                                  ..@137.NullFound
  2797 00001538 0F05                    syscall
  2798                                 
  2799                                 
  2800 0000153A 48C7C001000000          mov rax, 1
  2801 00001541 48C7C701000000          mov rdi, 1
  2802 00001548 48C7C6[00000000]        mov rsi, spaceMSG
  2803 0000154F 48C7C201000000          mov rdx, 1
  2804 00001556 0F05                    syscall
  2805                                 
  2806 00001558 5D                      pop rbp
  2807 00001559 5E                      pop rsi
  2808 0000155A 5F                      pop rdi
  2809 0000155B 415F                    pop r15
  2810 0000155D 415E                    pop r14
  2811 0000155F 415D                    pop r13
  2812 00001561 415C                    pop r12
  2813 00001563 415B                    pop r11
  2814 00001565 415A                    pop r10
  2815 00001567 59                      pop rcx
  2816 00001568 5B                      pop rbx
  2817 00001569 5A                      pop rdx
  2818 0000156A 58                      pop rax
  2819                                 %line 559+1 ast03.asm
  2820                                 
  2821                                 %line 559+0 ast03.asm
  2822                                 
  2823 0000156B 50                      push rax
  2824 0000156C 52                      push rdx
  2825 0000156D 53                      push rbx
  2826 0000156E 51                      push rcx
  2827 0000156F 4152                    push r10
  2828 00001571 4153                    push r11
  2829 00001573 4154                    push r12
  2830 00001575 4155                    push r13
  2831 00001577 4156                    push r14
  2832 00001579 4157                    push r15
  2833 0000157B 57                      push rdi
  2834 0000157C 56                      push rsi
  2835 0000157D 55                      push rbp
  2836 0000157E 48C7C001000000          mov rax, 1
  2837 00001585 48C7C701000000          mov rdi, 1
  2838 0000158C 48C7C6[00000000]        mov rsi, endlMSG
  2839 00001593 48C7C201000000          mov rdx, 1
  2840 0000159A 0F05                    syscall
  2841                                 
  2842 0000159C 5D                      pop rbp
  2843 0000159D 5E                      pop rsi
  2844 0000159E 5F                      pop rdi
  2845 0000159F 415F                    pop r15
  2846 000015A1 415E                    pop r14
  2847 000015A3 415D                    pop r13
  2848 000015A5 415C                    pop r12
  2849 000015A7 415B                    pop r11
  2850 000015A9 415A                    pop r10
  2851 000015AB 59                      pop rcx
  2852 000015AC 5B                      pop rbx
  2853 000015AD 5A                      pop rdx
  2854 000015AE 58                      pop rax
  2855                                 %line 560+1 ast03.asm
  2856                                 
  2857                                 %line 560+0 ast03.asm
  2858                                 
  2859 000015AF 50                      push rax
  2860 000015B0 52                      push rdx
  2861 000015B1 53                      push rbx
  2862 000015B2 51                      push rcx
  2863 000015B3 4152                    push r10
  2864 000015B5 4153                    push r11
  2865 000015B7 4154                    push r12
  2866 000015B9 4155                    push r13
  2867 000015BB 4156                    push r14
  2868 000015BD 4157                    push r15
  2869 000015BF 57                      push rdi
  2870 000015C0 56                      push rsi
  2871 000015C1 55                      push rbp
  2872 000015C2 48C7C001000000          mov rax, 1
  2873 000015C9 48C7C701000000          mov rdi, 1
  2874 000015D0 48C7C6[00000000]        mov rsi, twelveCheckMSG
  2875                                 
  2876                                 
  2877                                 
  2878 000015D7 48C7C200000000          mov rdx, 0
  2879                                  ..@144.notNull:
  2880                                 
  2881 000015DE 80BA[00000000]00        cmp byte[twelveCheckMSG+rdx], NULL
  2882 000015E5 7403                    je ..@144.NullFound
  2883                                 
  2884                                 
  2885 000015E7 48FFC2                  inc rdx
  2886                                 
  2887 000015EA EBF0                    jmp ..@144.notNull
  2888                                  ..@144.NullFound
  2889 000015EC 0F05                    syscall
  2890                                 
  2891                                 
  2892 000015EE 48C7C001000000          mov rax, 1
  2893 000015F5 48C7C701000000          mov rdi, 1
  2894 000015FC 48C7C6[00000000]        mov rsi, spaceMSG
  2895 00001603 48C7C201000000          mov rdx, 1
  2896 0000160A 0F05                    syscall
  2897                                 
  2898 0000160C 5D                      pop rbp
  2899 0000160D 5E                      pop rsi
  2900 0000160E 5F                      pop rdi
  2901 0000160F 415F                    pop r15
  2902 00001611 415E                    pop r14
  2903 00001613 415D                    pop r13
  2904 00001615 415C                    pop r12
  2905 00001617 415B                    pop r11
  2906 00001619 415A                    pop r10
  2907 0000161B 59                      pop rcx
  2908 0000161C 5B                      pop rbx
  2909 0000161D 5A                      pop rdx
  2910 0000161E 58                      pop rax
  2911                                 %line 561+1 ast03.asm
  2912                                 
  2913                                 %line 561+0 ast03.asm
  2914                                 
  2915 0000161F 50                      push rax
  2916 00001620 52                      push rdx
  2917 00001621 53                      push rbx
  2918 00001622 51                      push rcx
  2919 00001623 4152                    push r10
  2920 00001625 4153                    push r11
  2921 00001627 4154                    push r12
  2922 00001629 4155                    push r13
  2923 0000162B 4156                    push r14
  2924 0000162D 4157                    push r15
  2925 0000162F 57                      push rdi
  2926 00001630 56                      push rsi
  2927 00001631 55                      push rbp
  2928 00001632 48C7C001000000          mov rax, 1
  2929 00001639 48C7C701000000          mov rdi, 1
  2930 00001640 48C7C6[00000000]        mov rsi, endlMSG
  2931 00001647 48C7C201000000          mov rdx, 1
  2932 0000164E 0F05                    syscall
  2933                                 
  2934 00001650 5D                      pop rbp
  2935 00001651 5E                      pop rsi
  2936 00001652 5F                      pop rdi
  2937 00001653 415F                    pop r15
  2938 00001655 415E                    pop r14
  2939 00001657 415D                    pop r13
  2940 00001659 415C                    pop r12
  2941 0000165B 415B                    pop r11
  2942 0000165D 415A                    pop r10
  2943 0000165F 59                      pop rcx
  2944 00001660 5B                      pop rbx
  2945 00001661 5A                      pop rdx
  2946 00001662 58                      pop rax
  2947                                 %line 562+1 ast03.asm
  2948                                 
  2949                                 %line 562+0 ast03.asm
  2950                                 
  2951 00001663 50                      push rax
  2952 00001664 52                      push rdx
  2953 00001665 53                      push rbx
  2954 00001666 51                      push rcx
  2955 00001667 4152                    push r10
  2956 00001669 4153                    push r11
  2957 0000166B 4154                    push r12
  2958 0000166D 4155                    push r13
  2959 0000166F 4156                    push r14
  2960 00001671 4157                    push r15
  2961 00001673 57                      push rdi
  2962 00001674 56                      push rsi
  2963 00001675 55                      push rbp
  2964 00001676 48C7C001000000          mov rax, 1
  2965 0000167D 48C7C701000000          mov rdi, 1
  2966 00001684 48C7C6[00000000]        mov rsi, stars
  2967                                 
  2968                                 
  2969                                 
  2970 0000168B 48C7C200000000          mov rdx, 0
  2971                                  ..@151.notNull:
  2972                                 
  2973 00001692 80BA[00000000]00        cmp byte[stars+rdx], NULL
  2974 00001699 7403                    je ..@151.NullFound
  2975                                 
  2976                                 
  2977 0000169B 48FFC2                  inc rdx
  2978                                 
  2979 0000169E EBF0                    jmp ..@151.notNull
  2980                                  ..@151.NullFound
  2981 000016A0 0F05                    syscall
  2982                                 
  2983                                 
  2984 000016A2 48C7C001000000          mov rax, 1
  2985 000016A9 48C7C701000000          mov rdi, 1
  2986 000016B0 48C7C6[00000000]        mov rsi, spaceMSG
  2987 000016B7 48C7C201000000          mov rdx, 1
  2988 000016BE 0F05                    syscall
  2989                                 
  2990 000016C0 5D                      pop rbp
  2991 000016C1 5E                      pop rsi
  2992 000016C2 5F                      pop rdi
  2993 000016C3 415F                    pop r15
  2994 000016C5 415E                    pop r14
  2995 000016C7 415D                    pop r13
  2996 000016C9 415C                    pop r12
  2997 000016CB 415B                    pop r11
  2998 000016CD 415A                    pop r10
  2999 000016CF 59                      pop rcx
  3000 000016D0 5B                      pop rbx
  3001 000016D1 5A                      pop rdx
  3002 000016D2 58                      pop rax
  3003                                 %line 563+1 ast03.asm
  3004                                 
  3005                                 %line 563+0 ast03.asm
  3006                                 
  3007 000016D3 50                      push rax
  3008 000016D4 52                      push rdx
  3009 000016D5 53                      push rbx
  3010 000016D6 51                      push rcx
  3011 000016D7 4152                    push r10
  3012 000016D9 4153                    push r11
  3013 000016DB 4154                    push r12
  3014 000016DD 4155                    push r13
  3015 000016DF 4156                    push r14
  3016 000016E1 4157                    push r15
  3017 000016E3 57                      push rdi
  3018 000016E4 56                      push rsi
  3019 000016E5 55                      push rbp
  3020 000016E6 48C7C001000000          mov rax, 1
  3021 000016ED 48C7C701000000          mov rdi, 1
  3022 000016F4 48C7C6[00000000]        mov rsi, endlMSG
  3023 000016FB 48C7C201000000          mov rdx, 1
  3024 00001702 0F05                    syscall
  3025                                 
  3026 00001704 5D                      pop rbp
  3027 00001705 5E                      pop rsi
  3028 00001706 5F                      pop rdi
  3029 00001707 415F                    pop r15
  3030 00001709 415E                    pop r14
  3031 0000170B 415D                    pop r13
  3032 0000170D 415C                    pop r12
  3033 0000170F 415B                    pop r11
  3034 00001711 415A                    pop r10
  3035 00001713 59                      pop rcx
  3036 00001714 5B                      pop rbx
  3037 00001715 5A                      pop rdx
  3038 00001716 58                      pop rax
  3039                                 %line 564+1 ast03.asm
  3040                                 
  3041                                 %line 564+0 ast03.asm
  3042                                 
  3043 00001717 50                      push rax
  3044 00001718 52                      push rdx
  3045 00001719 53                      push rbx
  3046 0000171A 51                      push rcx
  3047 0000171B 4152                    push r10
  3048 0000171D 4153                    push r11
  3049 0000171F 4154                    push r12
  3050 00001721 4155                    push r13
  3051 00001723 4156                    push r14
  3052 00001725 4157                    push r15
  3053 00001727 57                      push rdi
  3054 00001728 56                      push rsi
  3055 00001729 55                      push rbp
  3056 0000172A 48C7C001000000          mov rax, 1
  3057 00001731 48C7C701000000          mov rdi, 1
  3058 00001738 48C7C6[00000000]        mov rsi, endlMSG
  3059 0000173F 48C7C201000000          mov rdx, 1
  3060 00001746 0F05                    syscall
  3061                                 
  3062 00001748 5D                      pop rbp
  3063 00001749 5E                      pop rsi
  3064 0000174A 5F                      pop rdi
  3065 0000174B 415F                    pop r15
  3066 0000174D 415E                    pop r14
  3067 0000174F 415D                    pop r13
  3068 00001751 415C                    pop r12
  3069 00001753 415B                    pop r11
  3070 00001755 415A                    pop r10
  3071 00001757 59                      pop rcx
  3072 00001758 5B                      pop rbx
  3073 00001759 5A                      pop rdx
  3074 0000175A 58                      pop rax
  3075                                 %line 565+1 ast03.asm
  3076                                 
  3077                                 
  3078                                 %line 566+0 ast03.asm
  3079                                 
  3080 0000175B 50                      push rax
  3081 0000175C 52                      push rdx
  3082 0000175D 53                      push rbx
  3083 0000175E 51                      push rcx
  3084 0000175F 4152                    push r10
  3085 00001761 4153                    push r11
  3086 00001763 4154                    push r12
  3087 00001765 4155                    push r13
  3088 00001767 4156                    push r14
  3089 00001769 4157                    push r15
  3090 0000176B 57                      push rdi
  3091 0000176C 56                      push rsi
  3092 0000176D 55                      push rbp
  3093 0000176E 48C7C001000000          mov rax, 1
  3094 00001775 48C7C701000000          mov rdi, 1
  3095 0000177C 48C7C6[00000000]        mov rsi, countMSG
  3096                                 
  3097                                 
  3098                                 
  3099 00001783 48C7C200000000          mov rdx, 0
  3100                                  ..@161.notNull:
  3101                                 
  3102 0000178A 80BA[00000000]00        cmp byte[countMSG+rdx], NULL
  3103 00001791 7403                    je ..@161.NullFound
  3104                                 
  3105                                 
  3106 00001793 48FFC2                  inc rdx
  3107                                 
  3108 00001796 EBF0                    jmp ..@161.notNull
  3109                                  ..@161.NullFound
  3110 00001798 0F05                    syscall
  3111                                 
  3112                                 
  3113 0000179A 48C7C001000000          mov rax, 1
  3114 000017A1 48C7C701000000          mov rdi, 1
  3115 000017A8 48C7C6[00000000]        mov rsi, spaceMSG
  3116 000017AF 48C7C201000000          mov rdx, 1
  3117 000017B6 0F05                    syscall
  3118                                 
  3119 000017B8 5D                      pop rbp
  3120 000017B9 5E                      pop rsi
  3121 000017BA 5F                      pop rdi
  3122 000017BB 415F                    pop r15
  3123 000017BD 415E                    pop r14
  3124 000017BF 415D                    pop r13
  3125 000017C1 415C                    pop r12
  3126 000017C3 415B                    pop r11
  3127 000017C5 415A                    pop r10
  3128 000017C7 59                      pop rcx
  3129 000017C8 5B                      pop rbx
  3130 000017C9 5A                      pop rdx
  3131 000017CA 58                      pop rax
  3132                                 %line 567+1 ast03.asm
  3133                                 
  3134                                 %line 567+0 ast03.asm
  3135                                 
  3136                                 
  3137                                 
  3138                                 
  3139                                 
  3140 000017CB 50                      push rax
  3141 000017CC 52                      push rdx
  3142 000017CD 53                      push rbx
  3143 000017CE 51                      push rcx
  3144 000017CF 4152                    push r10
  3145 000017D1 4153                    push r11
  3146 000017D3 4154                    push r12
  3147 000017D5 4155                    push r13
  3148 000017D7 4156                    push r14
  3149 000017D9 4157                    push r15
  3150 000017DB 57                      push rdi
  3151 000017DC 56                      push rsi
  3152 000017DD 55                      push rbp
  3153 000017DE 488B0425[00000000]      mov rax, qword[countTwelve]
  3154 000017E6 49C7C200000000          mov r10, 0
  3155 000017ED 49C7C30A000000          mov r11, 10
  3156 000017F4 49C7C608000000          mov r14, 8
  3157 000017FB 49C7C700000000          mov r15, 0
  3158 00001802 48C7C6FFFFFFFF          mov rsi, -1
  3159                                 
  3160                                  ..@163.startConversion:
  3161 00001809 4883F800                cmp rax, 0
  3162 0000180D 7424                    je ..@163.printNumberInternal
  3163                                 
  3164 0000180F 4883F800                cmp rax, 0
  3165 00001813 7C12                    jl ..@163.negativeDivision
  3166                                 
  3167                                 
  3168                                 
  3169 00001815 48C7C200000000          mov rdx, 0
  3170 0000181C 49F7F3                  div r11
  3171 0000181F 4883C230                add rdx, 48
  3172 00001823 52                      push rdx
  3173 00001824 49FFC2                  inc r10
  3174 00001827 EBDE                    jmp ..@163.startConversion
  3175                                 
  3176                                  ..@163.negativeDivision:
  3177                                 
  3178 00001829 49C7C701000000          mov r15, 1
  3179 00001830 48F7EE                  imul rsi
  3180 00001833 EBD2                    jmp ..@163.startConversion
  3181                                  ..@163.printNumberInternal:
  3182 00001835 4983FF00                cmp r15, 0
  3183 00001839 741C                    je ..@163.noNegative
  3184                                 
  3185 0000183B 48C7C001000000          mov rax, 1
  3186 00001842 48C7C701000000          mov rdi, 1
  3187 00001849 48C7C6[00000000]        mov rsi, negSign
  3188 00001850 48C7C201000000          mov rdx, 1
  3189 00001857 0F05                    syscall
  3190                                 
  3191                                  ..@163.noNegative:
  3192 00001859 4983FA00                cmp r10, 0
  3193 0000185D 7527                    jne ..@163.printNumberInteral2
  3194                                 
  3195                                 
  3196                                 
  3197                                 
  3198 0000185F 4983C230                add r10, 48
  3199 00001863 4152                    push r10
  3200                                 
  3201 00001865 48C7C001000000          mov rax, 1
  3202 0000186C 48C7C701000000          mov rdi, 1
  3203 00001873 488D3424                lea rsi, qword[rsp]
  3204 00001877 48C7C201000000          mov rdx, 1
  3205 0000187E 0F05                    syscall
  3206                                 
  3207 00001880 415A                    pop r10
  3208 00001882 4983EA30                sub r10, 48
  3209 00001886 EB2B                    jmp ..@163.finalChecks
  3210                                 
  3211                                  ..@163.printNumberInteral2:
  3212                                 
  3213 00001888 49C7C000000000          mov r8, 0
  3214 0000188F 4D89D5                  mov r13, r10
  3215                                  ..@163.printTillEnd:
  3216                                 
  3217 00001892 48C7C001000000          mov rax, 1
  3218 00001899 48C7C701000000          mov rdi, 1
  3219 000018A0 4A8D34C4                lea rsi, qword[rsp+r8*8]
  3220 000018A4 48C7C201000000          mov rdx, 1
  3221 000018AB 0F05                    syscall
  3222                                 
  3223                                 
  3224 000018AD 49FFC0                  inc r8
  3225                                 
  3226 000018B0 4D39E8                  cmp r8, r13
  3227 000018B3 7CDB                    jl ..@163.printTillEnd
  3228                                 
  3229                                  ..@163.finalChecks:
  3230                                 
  3231                                  ..@163.noMorePrints:
  3232                                 
  3233 000018B5 4C89D0                  mov rax, r10
  3234 000018B8 49F7E6                  mul r14
  3235 000018BB 4801C4                  add rsp, rax
  3236                                  ..@163.endProgram_macro:
  3237                                 
  3238 000018BE 5D                      pop rbp
  3239 000018BF 5E                      pop rsi
  3240 000018C0 5F                      pop rdi
  3241 000018C1 415F                    pop r15
  3242 000018C3 415E                    pop r14
  3243 000018C5 415D                    pop r13
  3244 000018C7 415C                    pop r12
  3245 000018C9 415B                    pop r11
  3246 000018CB 415A                    pop r10
  3247 000018CD 59                      pop rcx
  3248 000018CE 5B                      pop rbx
  3249 000018CF 5A                      pop rdx
  3250 000018D0 58                      pop rax
  3251                                 %line 568+1 ast03.asm
  3252                                 
  3253                                 %line 568+0 ast03.asm
  3254                                 
  3255 000018D1 50                      push rax
  3256 000018D2 52                      push rdx
  3257 000018D3 53                      push rbx
  3258 000018D4 51                      push rcx
  3259 000018D5 4152                    push r10
  3260 000018D7 4153                    push r11
  3261 000018D9 4154                    push r12
  3262 000018DB 4155                    push r13
  3263 000018DD 4156                    push r14
  3264 000018DF 4157                    push r15
  3265 000018E1 57                      push rdi
  3266 000018E2 56                      push rsi
  3267 000018E3 55                      push rbp
  3268 000018E4 48C7C001000000          mov rax, 1
  3269 000018EB 48C7C701000000          mov rdi, 1
  3270 000018F2 48C7C6[00000000]        mov rsi, endlMSG
  3271 000018F9 48C7C201000000          mov rdx, 1
  3272 00001900 0F05                    syscall
  3273                                 
  3274 00001902 5D                      pop rbp
  3275 00001903 5E                      pop rsi
  3276 00001904 5F                      pop rdi
  3277 00001905 415F                    pop r15
  3278 00001907 415E                    pop r14
  3279 00001909 415D                    pop r13
  3280 0000190B 415C                    pop r12
  3281 0000190D 415B                    pop r11
  3282 0000190F 415A                    pop r10
  3283 00001911 59                      pop rcx
  3284 00001912 5B                      pop rbx
  3285 00001913 5A                      pop rdx
  3286 00001914 58                      pop rax
  3287                                 %line 569+1 ast03.asm
  3288                                 
  3289                                 
  3290                                 %line 570+0 ast03.asm
  3291                                 
  3292 00001915 50                      push rax
  3293 00001916 52                      push rdx
  3294 00001917 53                      push rbx
  3295 00001918 51                      push rcx
  3296 00001919 4152                    push r10
  3297 0000191B 4153                    push r11
  3298 0000191D 4154                    push r12
  3299 0000191F 4155                    push r13
  3300 00001921 4156                    push r14
  3301 00001923 4157                    push r15
  3302 00001925 57                      push rdi
  3303 00001926 56                      push rsi
  3304 00001927 55                      push rbp
  3305 00001928 48C7C001000000          mov rax, 1
  3306 0000192F 48C7C701000000          mov rdi, 1
  3307 00001936 48C7C6[00000000]        mov rsi, sumMSG
  3308                                 
  3309                                 
  3310                                 
  3311 0000193D 48C7C200000000          mov rdx, 0
  3312                                  ..@171.notNull:
  3313                                 
  3314 00001944 80BA[00000000]00        cmp byte[sumMSG+rdx], NULL
  3315 0000194B 7403                    je ..@171.NullFound
  3316                                 
  3317                                 
  3318 0000194D 48FFC2                  inc rdx
  3319                                 
  3320 00001950 EBF0                    jmp ..@171.notNull
  3321                                  ..@171.NullFound
  3322 00001952 0F05                    syscall
  3323                                 
  3324                                 
  3325 00001954 48C7C001000000          mov rax, 1
  3326 0000195B 48C7C701000000          mov rdi, 1
  3327 00001962 48C7C6[00000000]        mov rsi, spaceMSG
  3328 00001969 48C7C201000000          mov rdx, 1
  3329 00001970 0F05                    syscall
  3330                                 
  3331 00001972 5D                      pop rbp
  3332 00001973 5E                      pop rsi
  3333 00001974 5F                      pop rdi
  3334 00001975 415F                    pop r15
  3335 00001977 415E                    pop r14
  3336 00001979 415D                    pop r13
  3337 0000197B 415C                    pop r12
  3338 0000197D 415B                    pop r11
  3339 0000197F 415A                    pop r10
  3340 00001981 59                      pop rcx
  3341 00001982 5B                      pop rbx
  3342 00001983 5A                      pop rdx
  3343 00001984 58                      pop rax
  3344                                 %line 571+1 ast03.asm
  3345                                 
  3346                                 %line 571+0 ast03.asm
  3347                                 
  3348                                 
  3349                                 
  3350                                 
  3351                                 
  3352 00001985 50                      push rax
  3353 00001986 52                      push rdx
  3354 00001987 53                      push rbx
  3355 00001988 51                      push rcx
  3356 00001989 4152                    push r10
  3357 0000198B 4153                    push r11
  3358 0000198D 4154                    push r12
  3359 0000198F 4155                    push r13
  3360 00001991 4156                    push r14
  3361 00001993 4157                    push r15
  3362 00001995 57                      push rdi
  3363 00001996 56                      push rsi
  3364 00001997 55                      push rbp
  3365 00001998 488B0425[00000000]      mov rax, qword[sumTwelve]
  3366 000019A0 49C7C200000000          mov r10, 0
  3367 000019A7 49C7C30A000000          mov r11, 10
  3368 000019AE 49C7C608000000          mov r14, 8
  3369 000019B5 49C7C700000000          mov r15, 0
  3370 000019BC 48C7C6FFFFFFFF          mov rsi, -1
  3371                                 
  3372                                  ..@173.startConversion:
  3373 000019C3 4883F800                cmp rax, 0
  3374 000019C7 7424                    je ..@173.printNumberInternal
  3375                                 
  3376 000019C9 4883F800                cmp rax, 0
  3377 000019CD 7C12                    jl ..@173.negativeDivision
  3378                                 
  3379                                 
  3380                                 
  3381 000019CF 48C7C200000000          mov rdx, 0
  3382 000019D6 49F7F3                  div r11
  3383 000019D9 4883C230                add rdx, 48
  3384 000019DD 52                      push rdx
  3385 000019DE 49FFC2                  inc r10
  3386 000019E1 EBDE                    jmp ..@173.startConversion
  3387                                 
  3388                                  ..@173.negativeDivision:
  3389                                 
  3390 000019E3 49C7C701000000          mov r15, 1
  3391 000019EA 48F7EE                  imul rsi
  3392 000019ED EBD2                    jmp ..@173.startConversion
  3393                                  ..@173.printNumberInternal:
  3394 000019EF 4983FF00                cmp r15, 0
  3395 000019F3 741C                    je ..@173.noNegative
  3396                                 
  3397 000019F5 48C7C001000000          mov rax, 1
  3398 000019FC 48C7C701000000          mov rdi, 1
  3399 00001A03 48C7C6[00000000]        mov rsi, negSign
  3400 00001A0A 48C7C201000000          mov rdx, 1
  3401 00001A11 0F05                    syscall
  3402                                 
  3403                                  ..@173.noNegative:
  3404 00001A13 4983FA00                cmp r10, 0
  3405 00001A17 7527                    jne ..@173.printNumberInteral2
  3406                                 
  3407                                 
  3408                                 
  3409                                 
  3410 00001A19 4983C230                add r10, 48
  3411 00001A1D 4152                    push r10
  3412                                 
  3413 00001A1F 48C7C001000000          mov rax, 1
  3414 00001A26 48C7C701000000          mov rdi, 1
  3415 00001A2D 488D3424                lea rsi, qword[rsp]
  3416 00001A31 48C7C201000000          mov rdx, 1
  3417 00001A38 0F05                    syscall
  3418                                 
  3419 00001A3A 415A                    pop r10
  3420 00001A3C 4983EA30                sub r10, 48
  3421 00001A40 EB2B                    jmp ..@173.finalChecks
  3422                                 
  3423                                  ..@173.printNumberInteral2:
  3424                                 
  3425 00001A42 49C7C000000000          mov r8, 0
  3426 00001A49 4D89D5                  mov r13, r10
  3427                                  ..@173.printTillEnd:
  3428                                 
  3429 00001A4C 48C7C001000000          mov rax, 1
  3430 00001A53 48C7C701000000          mov rdi, 1
  3431 00001A5A 4A8D34C4                lea rsi, qword[rsp+r8*8]
  3432 00001A5E 48C7C201000000          mov rdx, 1
  3433 00001A65 0F05                    syscall
  3434                                 
  3435                                 
  3436 00001A67 49FFC0                  inc r8
  3437                                 
  3438 00001A6A 4D39E8                  cmp r8, r13
  3439 00001A6D 7CDB                    jl ..@173.printTillEnd
  3440                                 
  3441                                  ..@173.finalChecks:
  3442                                 
  3443                                  ..@173.noMorePrints:
  3444                                 
  3445 00001A6F 4C89D0                  mov rax, r10
  3446 00001A72 49F7E6                  mul r14
  3447 00001A75 4801C4                  add rsp, rax
  3448                                  ..@173.endProgram_macro:
  3449                                 
  3450 00001A78 5D                      pop rbp
  3451 00001A79 5E                      pop rsi
  3452 00001A7A 5F                      pop rdi
  3453 00001A7B 415F                    pop r15
  3454 00001A7D 415E                    pop r14
  3455 00001A7F 415D                    pop r13
  3456 00001A81 415C                    pop r12
  3457 00001A83 415B                    pop r11
  3458 00001A85 415A                    pop r10
  3459 00001A87 59                      pop rcx
  3460 00001A88 5B                      pop rbx
  3461 00001A89 5A                      pop rdx
  3462 00001A8A 58                      pop rax
  3463                                 %line 572+1 ast03.asm
  3464                                 
  3465                                 %line 572+0 ast03.asm
  3466                                 
  3467 00001A8B 50                      push rax
  3468 00001A8C 52                      push rdx
  3469 00001A8D 53                      push rbx
  3470 00001A8E 51                      push rcx
  3471 00001A8F 4152                    push r10
  3472 00001A91 4153                    push r11
  3473 00001A93 4154                    push r12
  3474 00001A95 4155                    push r13
  3475 00001A97 4156                    push r14
  3476 00001A99 4157                    push r15
  3477 00001A9B 57                      push rdi
  3478 00001A9C 56                      push rsi
  3479 00001A9D 55                      push rbp
  3480 00001A9E 48C7C001000000          mov rax, 1
  3481 00001AA5 48C7C701000000          mov rdi, 1
  3482 00001AAC 48C7C6[00000000]        mov rsi, endlMSG
  3483 00001AB3 48C7C201000000          mov rdx, 1
  3484 00001ABA 0F05                    syscall
  3485                                 
  3486 00001ABC 5D                      pop rbp
  3487 00001ABD 5E                      pop rsi
  3488 00001ABE 5F                      pop rdi
  3489 00001ABF 415F                    pop r15
  3490 00001AC1 415E                    pop r14
  3491 00001AC3 415D                    pop r13
  3492 00001AC5 415C                    pop r12
  3493 00001AC7 415B                    pop r11
  3494 00001AC9 415A                    pop r10
  3495 00001ACB 59                      pop rcx
  3496 00001ACC 5B                      pop rbx
  3497 00001ACD 5A                      pop rdx
  3498 00001ACE 58                      pop rax
  3499                                 %line 573+1 ast03.asm
  3500                                 
  3501                                 
  3502                                 %line 574+0 ast03.asm
  3503                                 
  3504 00001ACF 50                      push rax
  3505 00001AD0 52                      push rdx
  3506 00001AD1 53                      push rbx
  3507 00001AD2 51                      push rcx
  3508 00001AD3 4152                    push r10
  3509 00001AD5 4153                    push r11
  3510 00001AD7 4154                    push r12
  3511 00001AD9 4155                    push r13
  3512 00001ADB 4156                    push r14
  3513 00001ADD 4157                    push r15
  3514 00001ADF 57                      push rdi
  3515 00001AE0 56                      push rsi
  3516 00001AE1 55                      push rbp
  3517 00001AE2 48C7C001000000          mov rax, 1
  3518 00001AE9 48C7C701000000          mov rdi, 1
  3519 00001AF0 48C7C6[00000000]        mov rsi, averageMSG
  3520                                 
  3521                                 
  3522                                 
  3523 00001AF7 48C7C200000000          mov rdx, 0
  3524                                  ..@181.notNull:
  3525                                 
  3526 00001AFE 80BA[00000000]00        cmp byte[averageMSG+rdx], NULL
  3527 00001B05 7403                    je ..@181.NullFound
  3528                                 
  3529                                 
  3530 00001B07 48FFC2                  inc rdx
  3531                                 
  3532 00001B0A EBF0                    jmp ..@181.notNull
  3533                                  ..@181.NullFound
  3534 00001B0C 0F05                    syscall
  3535                                 
  3536                                 
  3537 00001B0E 48C7C001000000          mov rax, 1
  3538 00001B15 48C7C701000000          mov rdi, 1
  3539 00001B1C 48C7C6[00000000]        mov rsi, spaceMSG
  3540 00001B23 48C7C201000000          mov rdx, 1
  3541 00001B2A 0F05                    syscall
  3542                                 
  3543 00001B2C 5D                      pop rbp
  3544 00001B2D 5E                      pop rsi
  3545 00001B2E 5F                      pop rdi
  3546 00001B2F 415F                    pop r15
  3547 00001B31 415E                    pop r14
  3548 00001B33 415D                    pop r13
  3549 00001B35 415C                    pop r12
  3550 00001B37 415B                    pop r11
  3551 00001B39 415A                    pop r10
  3552 00001B3B 59                      pop rcx
  3553 00001B3C 5B                      pop rbx
  3554 00001B3D 5A                      pop rdx
  3555 00001B3E 58                      pop rax
  3556                                 %line 575+1 ast03.asm
  3557                                 
  3558                                 %line 575+0 ast03.asm
  3559                                 
  3560                                 
  3561                                 
  3562                                 
  3563                                 
  3564 00001B3F 50                      push rax
  3565 00001B40 52                      push rdx
  3566 00001B41 53                      push rbx
  3567 00001B42 51                      push rcx
  3568 00001B43 4152                    push r10
  3569 00001B45 4153                    push r11
  3570 00001B47 4154                    push r12
  3571 00001B49 4155                    push r13
  3572 00001B4B 4156                    push r14
  3573 00001B4D 4157                    push r15
  3574 00001B4F 57                      push rdi
  3575 00001B50 56                      push rsi
  3576 00001B51 55                      push rbp
  3577 00001B52 488B0425[00000000]      mov rax, qword[averageTwelve]
  3578 00001B5A 49C7C200000000          mov r10, 0
  3579 00001B61 49C7C30A000000          mov r11, 10
  3580 00001B68 49C7C608000000          mov r14, 8
  3581 00001B6F 49C7C700000000          mov r15, 0
  3582 00001B76 48C7C6FFFFFFFF          mov rsi, -1
  3583                                 
  3584                                  ..@183.startConversion:
  3585 00001B7D 4883F800                cmp rax, 0
  3586 00001B81 7424                    je ..@183.printNumberInternal
  3587                                 
  3588 00001B83 4883F800                cmp rax, 0
  3589 00001B87 7C12                    jl ..@183.negativeDivision
  3590                                 
  3591                                 
  3592                                 
  3593 00001B89 48C7C200000000          mov rdx, 0
  3594 00001B90 49F7F3                  div r11
  3595 00001B93 4883C230                add rdx, 48
  3596 00001B97 52                      push rdx
  3597 00001B98 49FFC2                  inc r10
  3598 00001B9B EBDE                    jmp ..@183.startConversion
  3599                                 
  3600                                  ..@183.negativeDivision:
  3601                                 
  3602 00001B9D 49C7C701000000          mov r15, 1
  3603 00001BA4 48F7EE                  imul rsi
  3604 00001BA7 EBD2                    jmp ..@183.startConversion
  3605                                  ..@183.printNumberInternal:
  3606 00001BA9 4983FF00                cmp r15, 0
  3607 00001BAD 741C                    je ..@183.noNegative
  3608                                 
  3609 00001BAF 48C7C001000000          mov rax, 1
  3610 00001BB6 48C7C701000000          mov rdi, 1
  3611 00001BBD 48C7C6[00000000]        mov rsi, negSign
  3612 00001BC4 48C7C201000000          mov rdx, 1
  3613 00001BCB 0F05                    syscall
  3614                                 
  3615                                  ..@183.noNegative:
  3616 00001BCD 4983FA00                cmp r10, 0
  3617 00001BD1 7527                    jne ..@183.printNumberInteral2
  3618                                 
  3619                                 
  3620                                 
  3621                                 
  3622 00001BD3 4983C230                add r10, 48
  3623 00001BD7 4152                    push r10
  3624                                 
  3625 00001BD9 48C7C001000000          mov rax, 1
  3626 00001BE0 48C7C701000000          mov rdi, 1
  3627 00001BE7 488D3424                lea rsi, qword[rsp]
  3628 00001BEB 48C7C201000000          mov rdx, 1
  3629 00001BF2 0F05                    syscall
  3630                                 
  3631 00001BF4 415A                    pop r10
  3632 00001BF6 4983EA30                sub r10, 48
  3633 00001BFA EB2B                    jmp ..@183.finalChecks
  3634                                 
  3635                                  ..@183.printNumberInteral2:
  3636                                 
  3637 00001BFC 49C7C000000000          mov r8, 0
  3638 00001C03 4D89D5                  mov r13, r10
  3639                                  ..@183.printTillEnd:
  3640                                 
  3641 00001C06 48C7C001000000          mov rax, 1
  3642 00001C0D 48C7C701000000          mov rdi, 1
  3643 00001C14 4A8D34C4                lea rsi, qword[rsp+r8*8]
  3644 00001C18 48C7C201000000          mov rdx, 1
  3645 00001C1F 0F05                    syscall
  3646                                 
  3647                                 
  3648 00001C21 49FFC0                  inc r8
  3649                                 
  3650 00001C24 4D39E8                  cmp r8, r13
  3651 00001C27 7CDB                    jl ..@183.printTillEnd
  3652                                 
  3653                                  ..@183.finalChecks:
  3654                                 
  3655                                  ..@183.noMorePrints:
  3656                                 
  3657 00001C29 4C89D0                  mov rax, r10
  3658 00001C2C 49F7E6                  mul r14
  3659 00001C2F 4801C4                  add rsp, rax
  3660                                  ..@183.endProgram_macro:
  3661                                 
  3662 00001C32 5D                      pop rbp
  3663 00001C33 5E                      pop rsi
  3664 00001C34 5F                      pop rdi
  3665 00001C35 415F                    pop r15
  3666 00001C37 415E                    pop r14
  3667 00001C39 415D                    pop r13
  3668 00001C3B 415C                    pop r12
  3669 00001C3D 415B                    pop r11
  3670 00001C3F 415A                    pop r10
  3671 00001C41 59                      pop rcx
  3672 00001C42 5B                      pop rbx
  3673 00001C43 5A                      pop rdx
  3674 00001C44 58                      pop rax
  3675                                 %line 576+1 ast03.asm
  3676                                 
  3677                                 %line 576+0 ast03.asm
  3678                                 
  3679 00001C45 50                      push rax
  3680 00001C46 52                      push rdx
  3681 00001C47 53                      push rbx
  3682 00001C48 51                      push rcx
  3683 00001C49 4152                    push r10
  3684 00001C4B 4153                    push r11
  3685 00001C4D 4154                    push r12
  3686 00001C4F 4155                    push r13
  3687 00001C51 4156                    push r14
  3688 00001C53 4157                    push r15
  3689 00001C55 57                      push rdi
  3690 00001C56 56                      push rsi
  3691 00001C57 55                      push rbp
  3692 00001C58 48C7C001000000          mov rax, 1
  3693 00001C5F 48C7C701000000          mov rdi, 1
  3694 00001C66 48C7C6[00000000]        mov rsi, endlMSG
  3695 00001C6D 48C7C201000000          mov rdx, 1
  3696 00001C74 0F05                    syscall
  3697                                 
  3698 00001C76 5D                      pop rbp
  3699 00001C77 5E                      pop rsi
  3700 00001C78 5F                      pop rdi
  3701 00001C79 415F                    pop r15
  3702 00001C7B 415E                    pop r14
  3703 00001C7D 415D                    pop r13
  3704 00001C7F 415C                    pop r12
  3705 00001C81 415B                    pop r11
  3706 00001C83 415A                    pop r10
  3707 00001C85 59                      pop rcx
  3708 00001C86 5B                      pop rbx
  3709 00001C87 5A                      pop rdx
  3710 00001C88 58                      pop rax
  3711                                 %line 577+1 ast03.asm
  3712                                 
  3713                                 
  3714                                 %line 578+0 ast03.asm
  3715                                 
  3716                                 
  3717                                 
  3718                                 
  3719                                 
  3720                                 
  3721 00001C89 50                      push rax
  3722 00001C8A 52                      push rdx
  3723 00001C8B 53                      push rbx
  3724 00001C8C 51                      push rcx
  3725 00001C8D 4152                    push r10
  3726 00001C8F 4153                    push r11
  3727 00001C91 4154                    push r12
  3728 00001C93 4155                    push r13
  3729 00001C95 4156                    push r14
  3730 00001C97 4157                    push r15
  3731 00001C99 57                      push rdi
  3732 00001C9A 56                      push rsi
  3733 00001C9B 55                      push rbp
  3734 00001C9C 48C7C001000000          mov rax, 1
  3735 00001CA3 48C7C701000000          mov rdi, 1
  3736 00001CAA 48C7C6[00000000]        mov rsi, stars
  3737                                 
  3738                                 
  3739                                 
  3740 00001CB1 48C7C200000000          mov rdx, 0
  3741                                  ..@192.notNull:
  3742                                 
  3743 00001CB8 80BA[00000000]00        cmp byte[stars+rdx], NULL
  3744 00001CBF 7403                    je ..@192.NullFound
  3745                                 
  3746                                 
  3747 00001CC1 48FFC2                  inc rdx
  3748                                 
  3749 00001CC4 EBF0                    jmp ..@192.notNull
  3750                                  ..@192.NullFound
  3751 00001CC6 0F05                    syscall
  3752                                 
  3753                                 
  3754 00001CC8 48C7C001000000          mov rax, 1
  3755 00001CCF 48C7C701000000          mov rdi, 1
  3756 00001CD6 48C7C6[00000000]        mov rsi, spaceMSG
  3757 00001CDD 48C7C201000000          mov rdx, 1
  3758 00001CE4 0F05                    syscall
  3759                                 
  3760 00001CE6 5D                      pop rbp
  3761 00001CE7 5E                      pop rsi
  3762 00001CE8 5F                      pop rdi
  3763 00001CE9 415F                    pop r15
  3764 00001CEB 415E                    pop r14
  3765 00001CED 415D                    pop r13
  3766 00001CEF 415C                    pop r12
  3767 00001CF1 415B                    pop r11
  3768 00001CF3 415A                    pop r10
  3769 00001CF5 59                      pop rcx
  3770 00001CF6 5B                      pop rbx
  3771 00001CF7 5A                      pop rdx
  3772 00001CF8 58                      pop rax
  3773                                 
  3774                                 
  3775 00001CF9 50                      push rax
  3776 00001CFA 52                      push rdx
  3777 00001CFB 53                      push rbx
  3778 00001CFC 51                      push rcx
  3779 00001CFD 4152                    push r10
  3780 00001CFF 4153                    push r11
  3781 00001D01 4154                    push r12
  3782 00001D03 4155                    push r13
  3783 00001D05 4156                    push r14
  3784 00001D07 4157                    push r15
  3785 00001D09 57                      push rdi
  3786 00001D0A 56                      push rsi
  3787 00001D0B 55                      push rbp
  3788 00001D0C 48C7C001000000          mov rax, 1
  3789 00001D13 48C7C701000000          mov rdi, 1
  3790 00001D1A 48C7C6[00000000]        mov rsi, endlMSG
  3791 00001D21 48C7C201000000          mov rdx, 1
  3792 00001D28 0F05                    syscall
  3793                                 
  3794 00001D2A 5D                      pop rbp
  3795 00001D2B 5E                      pop rsi
  3796 00001D2C 5F                      pop rdi
  3797 00001D2D 415F                    pop r15
  3798 00001D2F 415E                    pop r14
  3799 00001D31 415D                    pop r13
  3800 00001D33 415C                    pop r12
  3801 00001D35 415B                    pop r11
  3802 00001D37 415A                    pop r10
  3803 00001D39 59                      pop rcx
  3804 00001D3A 5B                      pop rbx
  3805 00001D3B 5A                      pop rdx
  3806 00001D3C 58                      pop rax
  3807                                 
  3808                                 
  3809 00001D3D 50                      push rax
  3810 00001D3E 52                      push rdx
  3811 00001D3F 53                      push rbx
  3812 00001D40 51                      push rcx
  3813 00001D41 4152                    push r10
  3814 00001D43 4153                    push r11
  3815 00001D45 4154                    push r12
  3816 00001D47 4155                    push r13
  3817 00001D49 4156                    push r14
  3818 00001D4B 4157                    push r15
  3819 00001D4D 57                      push rdi
  3820 00001D4E 56                      push rsi
  3821 00001D4F 55                      push rbp
  3822 00001D50 48C7C001000000          mov rax, 1
  3823 00001D57 48C7C701000000          mov rdi, 1
  3824 00001D5E 48C7C6[00000000]        mov rsi, arrayAreasCheckMSG
  3825                                 
  3826                                 
  3827                                 
  3828 00001D65 48C7C200000000          mov rdx, 0
  3829                                  ..@199.notNull:
  3830                                 
  3831 00001D6C 80BA[00000000]00        cmp byte[arrayAreasCheckMSG+rdx], NULL
  3832 00001D73 7403                    je ..@199.NullFound
  3833                                 
  3834                                 
  3835 00001D75 48FFC2                  inc rdx
  3836                                 
  3837 00001D78 EBF0                    jmp ..@199.notNull
  3838                                  ..@199.NullFound
  3839 00001D7A 0F05                    syscall
  3840                                 
  3841                                 
  3842 00001D7C 48C7C001000000          mov rax, 1
  3843 00001D83 48C7C701000000          mov rdi, 1
  3844 00001D8A 48C7C6[00000000]        mov rsi, spaceMSG
  3845 00001D91 48C7C201000000          mov rdx, 1
  3846 00001D98 0F05                    syscall
  3847                                 
  3848 00001D9A 5D                      pop rbp
  3849 00001D9B 5E                      pop rsi
  3850 00001D9C 5F                      pop rdi
  3851 00001D9D 415F                    pop r15
  3852 00001D9F 415E                    pop r14
  3853 00001DA1 415D                    pop r13
  3854 00001DA3 415C                    pop r12
  3855 00001DA5 415B                    pop r11
  3856 00001DA7 415A                    pop r10
  3857 00001DA9 59                      pop rcx
  3858 00001DAA 5B                      pop rbx
  3859 00001DAB 5A                      pop rdx
  3860 00001DAC 58                      pop rax
  3861                                 
  3862                                 
  3863 00001DAD 50                      push rax
  3864 00001DAE 52                      push rdx
  3865 00001DAF 53                      push rbx
  3866 00001DB0 51                      push rcx
  3867 00001DB1 4152                    push r10
  3868 00001DB3 4153                    push r11
  3869 00001DB5 4154                    push r12
  3870 00001DB7 4155                    push r13
  3871 00001DB9 4156                    push r14
  3872 00001DBB 4157                    push r15
  3873 00001DBD 57                      push rdi
  3874 00001DBE 56                      push rsi
  3875 00001DBF 55                      push rbp
  3876 00001DC0 48C7C001000000          mov rax, 1
  3877 00001DC7 48C7C701000000          mov rdi, 1
  3878 00001DCE 48C7C6[00000000]        mov rsi, endlMSG
  3879 00001DD5 48C7C201000000          mov rdx, 1
  3880 00001DDC 0F05                    syscall
  3881                                 
  3882 00001DDE 5D                      pop rbp
  3883 00001DDF 5E                      pop rsi
  3884 00001DE0 5F                      pop rdi
  3885 00001DE1 415F                    pop r15
  3886 00001DE3 415E                    pop r14
  3887 00001DE5 415D                    pop r13
  3888 00001DE7 415C                    pop r12
  3889 00001DE9 415B                    pop r11
  3890 00001DEB 415A                    pop r10
  3891 00001DED 59                      pop rcx
  3892 00001DEE 5B                      pop rbx
  3893 00001DEF 5A                      pop rdx
  3894 00001DF0 58                      pop rax
  3895                                 
  3896                                 
  3897 00001DF1 50                      push rax
  3898 00001DF2 52                      push rdx
  3899 00001DF3 53                      push rbx
  3900 00001DF4 51                      push rcx
  3901 00001DF5 4152                    push r10
  3902 00001DF7 4153                    push r11
  3903 00001DF9 4154                    push r12
  3904 00001DFB 4155                    push r13
  3905 00001DFD 4156                    push r14
  3906 00001DFF 4157                    push r15
  3907 00001E01 57                      push rdi
  3908 00001E02 56                      push rsi
  3909 00001E03 55                      push rbp
  3910 00001E04 48C7C001000000          mov rax, 1
  3911 00001E0B 48C7C701000000          mov rdi, 1
  3912 00001E12 48C7C6[00000000]        mov rsi, stars
  3913                                 
  3914                                 
  3915                                 
  3916 00001E19 48C7C200000000          mov rdx, 0
  3917                                  ..@206.notNull:
  3918                                 
  3919 00001E20 80BA[00000000]00        cmp byte[stars+rdx], NULL
  3920 00001E27 7403                    je ..@206.NullFound
  3921                                 
  3922                                 
  3923 00001E29 48FFC2                  inc rdx
  3924                                 
  3925 00001E2C EBF0                    jmp ..@206.notNull
  3926                                  ..@206.NullFound
  3927 00001E2E 0F05                    syscall
  3928                                 
  3929                                 
  3930 00001E30 48C7C001000000          mov rax, 1
  3931 00001E37 48C7C701000000          mov rdi, 1
  3932 00001E3E 48C7C6[00000000]        mov rsi, spaceMSG
  3933 00001E45 48C7C201000000          mov rdx, 1
  3934 00001E4C 0F05                    syscall
  3935                                 
  3936 00001E4E 5D                      pop rbp
  3937 00001E4F 5E                      pop rsi
  3938 00001E50 5F                      pop rdi
  3939 00001E51 415F                    pop r15
  3940 00001E53 415E                    pop r14
  3941 00001E55 415D                    pop r13
  3942 00001E57 415C                    pop r12
  3943 00001E59 415B                    pop r11
  3944 00001E5B 415A                    pop r10
  3945 00001E5D 59                      pop rcx
  3946 00001E5E 5B                      pop rbx
  3947 00001E5F 5A                      pop rdx
  3948 00001E60 58                      pop rax
  3949                                 
  3950                                 
  3951 00001E61 50                      push rax
  3952 00001E62 52                      push rdx
  3953 00001E63 53                      push rbx
  3954 00001E64 51                      push rcx
  3955 00001E65 4152                    push r10
  3956 00001E67 4153                    push r11
  3957 00001E69 4154                    push r12
  3958 00001E6B 4155                    push r13
  3959 00001E6D 4156                    push r14
  3960 00001E6F 4157                    push r15
  3961 00001E71 57                      push rdi
  3962 00001E72 56                      push rsi
  3963 00001E73 55                      push rbp
  3964 00001E74 48C7C001000000          mov rax, 1
  3965 00001E7B 48C7C701000000          mov rdi, 1
  3966 00001E82 48C7C6[00000000]        mov rsi, endlMSG
  3967 00001E89 48C7C201000000          mov rdx, 1
  3968 00001E90 0F05                    syscall
  3969                                 
  3970 00001E92 5D                      pop rbp
  3971 00001E93 5E                      pop rsi
  3972 00001E94 5F                      pop rdi
  3973 00001E95 415F                    pop r15
  3974 00001E97 415E                    pop r14
  3975 00001E99 415D                    pop r13
  3976 00001E9B 415C                    pop r12
  3977 00001E9D 415B                    pop r11
  3978 00001E9F 415A                    pop r10
  3979 00001EA1 59                      pop rcx
  3980 00001EA2 5B                      pop rbx
  3981 00001EA3 5A                      pop rdx
  3982 00001EA4 58                      pop rax
  3983                                 
  3984                                 
  3985 00001EA5 50                      push rax
  3986 00001EA6 52                      push rdx
  3987 00001EA7 53                      push rbx
  3988 00001EA8 51                      push rcx
  3989 00001EA9 4152                    push r10
  3990 00001EAB 4153                    push r11
  3991 00001EAD 4154                    push r12
  3992 00001EAF 4155                    push r13
  3993 00001EB1 4156                    push r14
  3994 00001EB3 4157                    push r15
  3995 00001EB5 57                      push rdi
  3996 00001EB6 56                      push rsi
  3997 00001EB7 55                      push rbp
  3998 00001EB8 48C7C001000000          mov rax, 1
  3999 00001EBF 48C7C701000000          mov rdi, 1
  4000 00001EC6 48C7C6[00000000]        mov rsi, endlMSG
  4001 00001ECD 48C7C201000000          mov rdx, 1
  4002 00001ED4 0F05                    syscall
  4003                                 
  4004 00001ED6 5D                      pop rbp
  4005 00001ED7 5E                      pop rsi
  4006 00001ED8 5F                      pop rdi
  4007 00001ED9 415F                    pop r15
  4008 00001EDB 415E                    pop r14
  4009 00001EDD 415D                    pop r13
  4010 00001EDF 415C                    pop r12
  4011 00001EE1 415B                    pop r11
  4012 00001EE3 415A                    pop r10
  4013 00001EE5 59                      pop rcx
  4014 00001EE6 5B                      pop rbx
  4015 00001EE7 5A                      pop rdx
  4016 00001EE8 58                      pop rax
  4017                                 
  4018 00001EE9 48C7C001000000          mov rax, 1
  4019 00001EF0 48C7C30A000000          mov rbx, 10
  4020                                  ..@189.arrayPrintingLoop:
  4021 00001EF7 3A0425[00000000]        cmp al, byte[len]
  4022 00001EFE 0F8FD8010000            jg ..@189.arrayPrintingLoopDone
  4023                                 
  4024 00001F04 4C8D14C5[F8FFFFFF]      lea r10, [cubeAreas+(rax*8)-8]
  4025                                 
  4026                                 
  4027                                 
  4028                                 
  4029                                 
  4030                                 
  4031 00001F0C 50                      push rax
  4032 00001F0D 52                      push rdx
  4033 00001F0E 53                      push rbx
  4034 00001F0F 51                      push rcx
  4035 00001F10 4152                    push r10
  4036 00001F12 4153                    push r11
  4037 00001F14 4154                    push r12
  4038 00001F16 4155                    push r13
  4039 00001F18 4156                    push r14
  4040 00001F1A 4157                    push r15
  4041 00001F1C 57                      push rdi
  4042 00001F1D 56                      push rsi
  4043 00001F1E 55                      push rbp
  4044 00001F1F 498B02                  mov rax, qword[r10]
  4045 00001F22 49C7C200000000          mov r10, 0
  4046 00001F29 49C7C30A000000          mov r11, 10
  4047 00001F30 49C7C608000000          mov r14, 8
  4048 00001F37 49C7C700000000          mov r15, 0
  4049 00001F3E 48C7C6FFFFFFFF          mov rsi, -1
  4050                                 
  4051                                  ..@214.startConversion:
  4052 00001F45 4883F800                cmp rax, 0
  4053 00001F49 7424                    je ..@214.printNumberInternal
  4054                                 
  4055 00001F4B 4883F800                cmp rax, 0
  4056 00001F4F 7C12                    jl ..@214.negativeDivision
  4057                                 
  4058                                 
  4059                                 
  4060 00001F51 48C7C200000000          mov rdx, 0
  4061 00001F58 49F7F3                  div r11
  4062 00001F5B 4883C230                add rdx, 48
  4063 00001F5F 52                      push rdx
  4064 00001F60 49FFC2                  inc r10
  4065 00001F63 EBDE                    jmp ..@214.startConversion
  4066                                 
  4067                                  ..@214.negativeDivision:
  4068                                 
  4069 00001F65 49C7C701000000          mov r15, 1
  4070 00001F6C 48F7EE                  imul rsi
  4071 00001F6F EBD2                    jmp ..@214.startConversion
  4072                                  ..@214.printNumberInternal:
  4073 00001F71 4983FF00                cmp r15, 0
  4074 00001F75 741C                    je ..@214.noNegative
  4075                                 
  4076 00001F77 48C7C001000000          mov rax, 1
  4077 00001F7E 48C7C701000000          mov rdi, 1
  4078 00001F85 48C7C6[00000000]        mov rsi, negSign
  4079 00001F8C 48C7C201000000          mov rdx, 1
  4080 00001F93 0F05                    syscall
  4081                                 
  4082                                  ..@214.noNegative:
  4083 00001F95 4983FA00                cmp r10, 0
  4084 00001F99 7527                    jne ..@214.printNumberInteral2
  4085                                 
  4086                                 
  4087                                 
  4088                                 
  4089 00001F9B 4983C230                add r10, 48
  4090 00001F9F 4152                    push r10
  4091                                 
  4092 00001FA1 48C7C001000000          mov rax, 1
  4093 00001FA8 48C7C701000000          mov rdi, 1
  4094 00001FAF 488D3424                lea rsi, qword[rsp]
  4095 00001FB3 48C7C201000000          mov rdx, 1
  4096 00001FBA 0F05                    syscall
  4097                                 
  4098 00001FBC 415A                    pop r10
  4099 00001FBE 4983EA30                sub r10, 48
  4100 00001FC2 EB2B                    jmp ..@214.finalChecks
  4101                                 
  4102                                  ..@214.printNumberInteral2:
  4103                                 
  4104 00001FC4 49C7C000000000          mov r8, 0
  4105 00001FCB 4D89D5                  mov r13, r10
  4106                                  ..@214.printTillEnd:
  4107                                 
  4108 00001FCE 48C7C001000000          mov rax, 1
  4109 00001FD5 48C7C701000000          mov rdi, 1
  4110 00001FDC 4A8D34C4                lea rsi, qword[rsp+r8*8]
  4111 00001FE0 48C7C201000000          mov rdx, 1
  4112 00001FE7 0F05                    syscall
  4113                                 
  4114                                 
  4115 00001FE9 49FFC0                  inc r8
  4116                                 
  4117 00001FEC 4D39E8                  cmp r8, r13
  4118 00001FEF 7CDB                    jl ..@214.printTillEnd
  4119                                 
  4120                                  ..@214.finalChecks:
  4121                                 
  4122                                  ..@214.noMorePrints:
  4123                                 
  4124 00001FF1 4C89D0                  mov rax, r10
  4125 00001FF4 49F7E6                  mul r14
  4126 00001FF7 4801C4                  add rsp, rax
  4127                                  ..@214.endProgram_macro:
  4128                                 
  4129 00001FFA 5D                      pop rbp
  4130 00001FFB 5E                      pop rsi
  4131 00001FFC 5F                      pop rdi
  4132 00001FFD 415F                    pop r15
  4133 00001FFF 415E                    pop r14
  4134 00002001 415D                    pop r13
  4135 00002003 415C                    pop r12
  4136 00002005 415B                    pop r11
  4137 00002007 415A                    pop r10
  4138 00002009 59                      pop rcx
  4139 0000200A 5B                      pop rbx
  4140 0000200B 5A                      pop rdx
  4141 0000200C 58                      pop rax
  4142                                 
  4143                                 
  4144 0000200D 50                      push rax
  4145 0000200E 52                      push rdx
  4146 0000200F 53                      push rbx
  4147 00002010 51                      push rcx
  4148 00002011 4152                    push r10
  4149 00002013 4153                    push r11
  4150 00002015 4154                    push r12
  4151 00002017 4155                    push r13
  4152 00002019 4156                    push r14
  4153 0000201B 4157                    push r15
  4154 0000201D 57                      push rdi
  4155 0000201E 56                      push rsi
  4156 0000201F 55                      push rbp
  4157 00002020 48C7C001000000          mov rax, 1
  4158 00002027 48C7C701000000          mov rdi, 1
  4159 0000202E 48C7C6[00000000]        mov rsi, spaceMSG
  4160                                 
  4161                                 
  4162                                 
  4163 00002035 48C7C200000000          mov rdx, 0
  4164                                  ..@219.notNull:
  4165                                 
  4166 0000203C 80BA[00000000]00        cmp byte[spaceMSG+rdx], NULL
  4167 00002043 7403                    je ..@219.NullFound
  4168                                 
  4169                                 
  4170 00002045 48FFC2                  inc rdx
  4171                                 
  4172 00002048 EBF0                    jmp ..@219.notNull
  4173                                  ..@219.NullFound
  4174 0000204A 0F05                    syscall
  4175                                 
  4176                                 
  4177 0000204C 48C7C001000000          mov rax, 1
  4178 00002053 48C7C701000000          mov rdi, 1
  4179 0000205A 48C7C6[00000000]        mov rsi, spaceMSG
  4180 00002061 48C7C201000000          mov rdx, 1
  4181 00002068 0F05                    syscall
  4182                                 
  4183 0000206A 5D                      pop rbp
  4184 0000206B 5E                      pop rsi
  4185 0000206C 5F                      pop rdi
  4186 0000206D 415F                    pop r15
  4187 0000206F 415E                    pop r14
  4188 00002071 415D                    pop r13
  4189 00002073 415C                    pop r12
  4190 00002075 415B                    pop r11
  4191 00002077 415A                    pop r10
  4192 00002079 59                      pop rcx
  4193 0000207A 5B                      pop rbx
  4194 0000207B 5A                      pop rdx
  4195 0000207C 58                      pop rax
  4196                                 
  4197 0000207D 50                      push rax
  4198 0000207E 48C7C200000000          mov rdx, 0
  4199 00002085 48F7F3                  div rbx
  4200 00002088 58                      pop rax
  4201 00002089 4883FA00                cmp rdx, 0
  4202 0000208D 7542                    jne ..@189.noNewLine
  4203                                 
  4204                                 
  4205                                 
  4206 0000208F 50                      push rax
  4207 00002090 52                      push rdx
  4208 00002091 53                      push rbx
  4209 00002092 51                      push rcx
  4210 00002093 4152                    push r10
  4211 00002095 4153                    push r11
  4212 00002097 4154                    push r12
  4213 00002099 4155                    push r13
  4214 0000209B 4156                    push r14
  4215 0000209D 4157                    push r15
  4216 0000209F 57                      push rdi
  4217 000020A0 56                      push rsi
  4218 000020A1 55                      push rbp
  4219 000020A2 48C7C001000000          mov rax, 1
  4220 000020A9 48C7C701000000          mov rdi, 1
  4221 000020B0 48C7C6[00000000]        mov rsi, endlMSG
  4222 000020B7 48C7C201000000          mov rdx, 1
  4223 000020BE 0F05                    syscall
  4224                                 
  4225 000020C0 5D                      pop rbp
  4226 000020C1 5E                      pop rsi
  4227 000020C2 5F                      pop rdi
  4228 000020C3 415F                    pop r15
  4229 000020C5 415E                    pop r14
  4230 000020C7 415D                    pop r13
  4231 000020C9 415C                    pop r12
  4232 000020CB 415B                    pop r11
  4233 000020CD 415A                    pop r10
  4234 000020CF 59                      pop rcx
  4235 000020D0 5B                      pop rbx
  4236 000020D1 5A                      pop rdx
  4237 000020D2 58                      pop rax
  4238                                 
  4239                                  ..@189.noNewLine:
  4240 000020D3 48FFC0                  inc rax
  4241 000020D6 48C7C200000000          mov rdx, 0
  4242 000020DD E910FEFFFF              jmp ..@189.arrayPrintingLoop
  4243                                  ..@189.arrayPrintingLoopDone:
  4244                                 
  4245                                 
  4246 000020E2 50                      push rax
  4247 000020E3 52                      push rdx
  4248 000020E4 53                      push rbx
  4249 000020E5 51                      push rcx
  4250 000020E6 4152                    push r10
  4251 000020E8 4153                    push r11
  4252 000020EA 4154                    push r12
  4253 000020EC 4155                    push r13
  4254 000020EE 4156                    push r14
  4255 000020F0 4157                    push r15
  4256 000020F2 57                      push rdi
  4257 000020F3 56                      push rsi
  4258 000020F4 55                      push rbp
  4259 000020F5 48C7C001000000          mov rax, 1
  4260 000020FC 48C7C701000000          mov rdi, 1
  4261 00002103 48C7C6[00000000]        mov rsi, endlMSG
  4262 0000210A 48C7C201000000          mov rdx, 1
  4263 00002111 0F05                    syscall
  4264                                 
  4265 00002113 5D                      pop rbp
  4266 00002114 5E                      pop rsi
  4267 00002115 5F                      pop rdi
  4268 00002116 415F                    pop r15
  4269 00002118 415E                    pop r14
  4270 0000211A 415D                    pop r13
  4271 0000211C 415C                    pop r12
  4272 0000211E 415B                    pop r11
  4273 00002120 415A                    pop r10
  4274 00002122 59                      pop rcx
  4275 00002123 5B                      pop rbx
  4276 00002124 5A                      pop rdx
  4277 00002125 58                      pop rax
  4278                                 %line 579+1 ast03.asm
  4279                                 
  4280                                 %line 579+0 ast03.asm
  4281                                 
  4282                                 
  4283                                 
  4284                                 
  4285                                 
  4286                                 
  4287 00002126 50                      push rax
  4288 00002127 52                      push rdx
  4289 00002128 53                      push rbx
  4290 00002129 51                      push rcx
  4291 0000212A 4152                    push r10
  4292 0000212C 4153                    push r11
  4293 0000212E 4154                    push r12
  4294 00002130 4155                    push r13
  4295 00002132 4156                    push r14
  4296 00002134 4157                    push r15
  4297 00002136 57                      push rdi
  4298 00002137 56                      push rsi
  4299 00002138 55                      push rbp
  4300 00002139 48C7C001000000          mov rax, 1
  4301 00002140 48C7C701000000          mov rdi, 1
  4302 00002147 48C7C6[00000000]        mov rsi, stars
  4303                                 
  4304                                 
  4305                                 
  4306 0000214E 48C7C200000000          mov rdx, 0
  4307                                  ..@230.notNull:
  4308                                 
  4309 00002155 80BA[00000000]00        cmp byte[stars+rdx], NULL
  4310 0000215C 7403                    je ..@230.NullFound
  4311                                 
  4312                                 
  4313 0000215E 48FFC2                  inc rdx
  4314                                 
  4315 00002161 EBF0                    jmp ..@230.notNull
  4316                                  ..@230.NullFound
  4317 00002163 0F05                    syscall
  4318                                 
  4319                                 
  4320 00002165 48C7C001000000          mov rax, 1
  4321 0000216C 48C7C701000000          mov rdi, 1
  4322 00002173 48C7C6[00000000]        mov rsi, spaceMSG
  4323 0000217A 48C7C201000000          mov rdx, 1
  4324 00002181 0F05                    syscall
  4325                                 
  4326 00002183 5D                      pop rbp
  4327 00002184 5E                      pop rsi
  4328 00002185 5F                      pop rdi
  4329 00002186 415F                    pop r15
  4330 00002188 415E                    pop r14
  4331 0000218A 415D                    pop r13
  4332 0000218C 415C                    pop r12
  4333 0000218E 415B                    pop r11
  4334 00002190 415A                    pop r10
  4335 00002192 59                      pop rcx
  4336 00002193 5B                      pop rbx
  4337 00002194 5A                      pop rdx
  4338 00002195 58                      pop rax
  4339                                 
  4340                                 
  4341 00002196 50                      push rax
  4342 00002197 52                      push rdx
  4343 00002198 53                      push rbx
  4344 00002199 51                      push rcx
  4345 0000219A 4152                    push r10
  4346 0000219C 4153                    push r11
  4347 0000219E 4154                    push r12
  4348 000021A0 4155                    push r13
  4349 000021A2 4156                    push r14
  4350 000021A4 4157                    push r15
  4351 000021A6 57                      push rdi
  4352 000021A7 56                      push rsi
  4353 000021A8 55                      push rbp
  4354 000021A9 48C7C001000000          mov rax, 1
  4355 000021B0 48C7C701000000          mov rdi, 1
  4356 000021B7 48C7C6[00000000]        mov rsi, endlMSG
  4357 000021BE 48C7C201000000          mov rdx, 1
  4358 000021C5 0F05                    syscall
  4359                                 
  4360 000021C7 5D                      pop rbp
  4361 000021C8 5E                      pop rsi
  4362 000021C9 5F                      pop rdi
  4363 000021CA 415F                    pop r15
  4364 000021CC 415E                    pop r14
  4365 000021CE 415D                    pop r13
  4366 000021D0 415C                    pop r12
  4367 000021D2 415B                    pop r11
  4368 000021D4 415A                    pop r10
  4369 000021D6 59                      pop rcx
  4370 000021D7 5B                      pop rbx
  4371 000021D8 5A                      pop rdx
  4372 000021D9 58                      pop rax
  4373                                 
  4374                                 
  4375 000021DA 50                      push rax
  4376 000021DB 52                      push rdx
  4377 000021DC 53                      push rbx
  4378 000021DD 51                      push rcx
  4379 000021DE 4152                    push r10
  4380 000021E0 4153                    push r11
  4381 000021E2 4154                    push r12
  4382 000021E4 4155                    push r13
  4383 000021E6 4156                    push r14
  4384 000021E8 4157                    push r15
  4385 000021EA 57                      push rdi
  4386 000021EB 56                      push rsi
  4387 000021EC 55                      push rbp
  4388 000021ED 48C7C001000000          mov rax, 1
  4389 000021F4 48C7C701000000          mov rdi, 1
  4390 000021FB 48C7C6[00000000]        mov rsi, arrayVolumeCheckMSG
  4391                                 
  4392                                 
  4393                                 
  4394 00002202 48C7C200000000          mov rdx, 0
  4395                                  ..@237.notNull:
  4396                                 
  4397 00002209 80BA[00000000]00        cmp byte[arrayVolumeCheckMSG+rdx], NULL
  4398 00002210 7403                    je ..@237.NullFound
  4399                                 
  4400                                 
  4401 00002212 48FFC2                  inc rdx
  4402                                 
  4403 00002215 EBF0                    jmp ..@237.notNull
  4404                                  ..@237.NullFound
  4405 00002217 0F05                    syscall
  4406                                 
  4407                                 
  4408 00002219 48C7C001000000          mov rax, 1
  4409 00002220 48C7C701000000          mov rdi, 1
  4410 00002227 48C7C6[00000000]        mov rsi, spaceMSG
  4411 0000222E 48C7C201000000          mov rdx, 1
  4412 00002235 0F05                    syscall
  4413                                 
  4414 00002237 5D                      pop rbp
  4415 00002238 5E                      pop rsi
  4416 00002239 5F                      pop rdi
  4417 0000223A 415F                    pop r15
  4418 0000223C 415E                    pop r14
  4419 0000223E 415D                    pop r13
  4420 00002240 415C                    pop r12
  4421 00002242 415B                    pop r11
  4422 00002244 415A                    pop r10
  4423 00002246 59                      pop rcx
  4424 00002247 5B                      pop rbx
  4425 00002248 5A                      pop rdx
  4426 00002249 58                      pop rax
  4427                                 
  4428                                 
  4429 0000224A 50                      push rax
  4430 0000224B 52                      push rdx
  4431 0000224C 53                      push rbx
  4432 0000224D 51                      push rcx
  4433 0000224E 4152                    push r10
  4434 00002250 4153                    push r11
  4435 00002252 4154                    push r12
  4436 00002254 4155                    push r13
  4437 00002256 4156                    push r14
  4438 00002258 4157                    push r15
  4439 0000225A 57                      push rdi
  4440 0000225B 56                      push rsi
  4441 0000225C 55                      push rbp
  4442 0000225D 48C7C001000000          mov rax, 1
  4443 00002264 48C7C701000000          mov rdi, 1
  4444 0000226B 48C7C6[00000000]        mov rsi, endlMSG
  4445 00002272 48C7C201000000          mov rdx, 1
  4446 00002279 0F05                    syscall
  4447                                 
  4448 0000227B 5D                      pop rbp
  4449 0000227C 5E                      pop rsi
  4450 0000227D 5F                      pop rdi
  4451 0000227E 415F                    pop r15
  4452 00002280 415E                    pop r14
  4453 00002282 415D                    pop r13
  4454 00002284 415C                    pop r12
  4455 00002286 415B                    pop r11
  4456 00002288 415A                    pop r10
  4457 0000228A 59                      pop rcx
  4458 0000228B 5B                      pop rbx
  4459 0000228C 5A                      pop rdx
  4460 0000228D 58                      pop rax
  4461                                 
  4462                                 
  4463 0000228E 50                      push rax
  4464 0000228F 52                      push rdx
  4465 00002290 53                      push rbx
  4466 00002291 51                      push rcx
  4467 00002292 4152                    push r10
  4468 00002294 4153                    push r11
  4469 00002296 4154                    push r12
  4470 00002298 4155                    push r13
  4471 0000229A 4156                    push r14
  4472 0000229C 4157                    push r15
  4473 0000229E 57                      push rdi
  4474 0000229F 56                      push rsi
  4475 000022A0 55                      push rbp
  4476 000022A1 48C7C001000000          mov rax, 1
  4477 000022A8 48C7C701000000          mov rdi, 1
  4478 000022AF 48C7C6[00000000]        mov rsi, stars
  4479                                 
  4480                                 
  4481                                 
  4482 000022B6 48C7C200000000          mov rdx, 0
  4483                                  ..@244.notNull:
  4484                                 
  4485 000022BD 80BA[00000000]00        cmp byte[stars+rdx], NULL
  4486 000022C4 7403                    je ..@244.NullFound
  4487                                 
  4488                                 
  4489 000022C6 48FFC2                  inc rdx
  4490                                 
  4491 000022C9 EBF0                    jmp ..@244.notNull
  4492                                  ..@244.NullFound
  4493 000022CB 0F05                    syscall
  4494                                 
  4495                                 
  4496 000022CD 48C7C001000000          mov rax, 1
  4497 000022D4 48C7C701000000          mov rdi, 1
  4498 000022DB 48C7C6[00000000]        mov rsi, spaceMSG
  4499 000022E2 48C7C201000000          mov rdx, 1
  4500 000022E9 0F05                    syscall
  4501                                 
  4502 000022EB 5D                      pop rbp
  4503 000022EC 5E                      pop rsi
  4504 000022ED 5F                      pop rdi
  4505 000022EE 415F                    pop r15
  4506 000022F0 415E                    pop r14
  4507 000022F2 415D                    pop r13
  4508 000022F4 415C                    pop r12
  4509 000022F6 415B                    pop r11
  4510 000022F8 415A                    pop r10
  4511 000022FA 59                      pop rcx
  4512 000022FB 5B                      pop rbx
  4513 000022FC 5A                      pop rdx
  4514 000022FD 58                      pop rax
  4515                                 
  4516                                 
  4517 000022FE 50                      push rax
  4518 000022FF 52                      push rdx
  4519 00002300 53                      push rbx
  4520 00002301 51                      push rcx
  4521 00002302 4152                    push r10
  4522 00002304 4153                    push r11
  4523 00002306 4154                    push r12
  4524 00002308 4155                    push r13
  4525 0000230A 4156                    push r14
  4526 0000230C 4157                    push r15
  4527 0000230E 57                      push rdi
  4528 0000230F 56                      push rsi
  4529 00002310 55                      push rbp
  4530 00002311 48C7C001000000          mov rax, 1
  4531 00002318 48C7C701000000          mov rdi, 1
  4532 0000231F 48C7C6[00000000]        mov rsi, endlMSG
  4533 00002326 48C7C201000000          mov rdx, 1
  4534 0000232D 0F05                    syscall
  4535                                 
  4536 0000232F 5D                      pop rbp
  4537 00002330 5E                      pop rsi
  4538 00002331 5F                      pop rdi
  4539 00002332 415F                    pop r15
  4540 00002334 415E                    pop r14
  4541 00002336 415D                    pop r13
  4542 00002338 415C                    pop r12
  4543 0000233A 415B                    pop r11
  4544 0000233C 415A                    pop r10
  4545 0000233E 59                      pop rcx
  4546 0000233F 5B                      pop rbx
  4547 00002340 5A                      pop rdx
  4548 00002341 58                      pop rax
  4549                                 
  4550                                 
  4551 00002342 50                      push rax
  4552 00002343 52                      push rdx
  4553 00002344 53                      push rbx
  4554 00002345 51                      push rcx
  4555 00002346 4152                    push r10
  4556 00002348 4153                    push r11
  4557 0000234A 4154                    push r12
  4558 0000234C 4155                    push r13
  4559 0000234E 4156                    push r14
  4560 00002350 4157                    push r15
  4561 00002352 57                      push rdi
  4562 00002353 56                      push rsi
  4563 00002354 55                      push rbp
  4564 00002355 48C7C001000000          mov rax, 1
  4565 0000235C 48C7C701000000          mov rdi, 1
  4566 00002363 48C7C6[00000000]        mov rsi, endlMSG
  4567 0000236A 48C7C201000000          mov rdx, 1
  4568 00002371 0F05                    syscall
  4569                                 
  4570 00002373 5D                      pop rbp
  4571 00002374 5E                      pop rsi
  4572 00002375 5F                      pop rdi
  4573 00002376 415F                    pop r15
  4574 00002378 415E                    pop r14
  4575 0000237A 415D                    pop r13
  4576 0000237C 415C                    pop r12
  4577 0000237E 415B                    pop r11
  4578 00002380 415A                    pop r10
  4579 00002382 59                      pop rcx
  4580 00002383 5B                      pop rbx
  4581 00002384 5A                      pop rdx
  4582 00002385 58                      pop rax
  4583                                 
  4584 00002386 48C7C001000000          mov rax, 1
  4585 0000238D 48C7C30A000000          mov rbx, 10
  4586                                  ..@227.arrayPrintingLoop:
  4587 00002394 3A0425[00000000]        cmp al, byte[len]
  4588 0000239B 0F8FD8010000            jg ..@227.arrayPrintingLoopDone
  4589                                 
  4590 000023A1 4C8D14C5[F8FFFFFF]      lea r10, [cubeVolumes+(rax*8)-8]
  4591                                 
  4592                                 
  4593                                 
  4594                                 
  4595                                 
  4596                                 
  4597 000023A9 50                      push rax
  4598 000023AA 52                      push rdx
  4599 000023AB 53                      push rbx
  4600 000023AC 51                      push rcx
  4601 000023AD 4152                    push r10
  4602 000023AF 4153                    push r11
  4603 000023B1 4154                    push r12
  4604 000023B3 4155                    push r13
  4605 000023B5 4156                    push r14
  4606 000023B7 4157                    push r15
  4607 000023B9 57                      push rdi
  4608 000023BA 56                      push rsi
  4609 000023BB 55                      push rbp
  4610 000023BC 498B02                  mov rax, qword[r10]
  4611 000023BF 49C7C200000000          mov r10, 0
  4612 000023C6 49C7C30A000000          mov r11, 10
  4613 000023CD 49C7C608000000          mov r14, 8
  4614 000023D4 49C7C700000000          mov r15, 0
  4615 000023DB 48C7C6FFFFFFFF          mov rsi, -1
  4616                                 
  4617                                  ..@252.startConversion:
  4618 000023E2 4883F800                cmp rax, 0
  4619 000023E6 7424                    je ..@252.printNumberInternal
  4620                                 
  4621 000023E8 4883F800                cmp rax, 0
  4622 000023EC 7C12                    jl ..@252.negativeDivision
  4623                                 
  4624                                 
  4625                                 
  4626 000023EE 48C7C200000000          mov rdx, 0
  4627 000023F5 49F7F3                  div r11
  4628 000023F8 4883C230                add rdx, 48
  4629 000023FC 52                      push rdx
  4630 000023FD 49FFC2                  inc r10
  4631 00002400 EBDE                    jmp ..@252.startConversion
  4632                                 
  4633                                  ..@252.negativeDivision:
  4634                                 
  4635 00002402 49C7C701000000          mov r15, 1
  4636 00002409 48F7EE                  imul rsi
  4637 0000240C EBD2                    jmp ..@252.startConversion
  4638                                  ..@252.printNumberInternal:
  4639 0000240E 4983FF00                cmp r15, 0
  4640 00002412 741C                    je ..@252.noNegative
  4641                                 
  4642 00002414 48C7C001000000          mov rax, 1
  4643 0000241B 48C7C701000000          mov rdi, 1
  4644 00002422 48C7C6[00000000]        mov rsi, negSign
  4645 00002429 48C7C201000000          mov rdx, 1
  4646 00002430 0F05                    syscall
  4647                                 
  4648                                  ..@252.noNegative:
  4649 00002432 4983FA00                cmp r10, 0
  4650 00002436 7527                    jne ..@252.printNumberInteral2
  4651                                 
  4652                                 
  4653                                 
  4654                                 
  4655 00002438 4983C230                add r10, 48
  4656 0000243C 4152                    push r10
  4657                                 
  4658 0000243E 48C7C001000000          mov rax, 1
  4659 00002445 48C7C701000000          mov rdi, 1
  4660 0000244C 488D3424                lea rsi, qword[rsp]
  4661 00002450 48C7C201000000          mov rdx, 1
  4662 00002457 0F05                    syscall
  4663                                 
  4664 00002459 415A                    pop r10
  4665 0000245B 4983EA30                sub r10, 48
  4666 0000245F EB2B                    jmp ..@252.finalChecks
  4667                                 
  4668                                  ..@252.printNumberInteral2:
  4669                                 
  4670 00002461 49C7C000000000          mov r8, 0
  4671 00002468 4D89D5                  mov r13, r10
  4672                                  ..@252.printTillEnd:
  4673                                 
  4674 0000246B 48C7C001000000          mov rax, 1
  4675 00002472 48C7C701000000          mov rdi, 1
  4676 00002479 4A8D34C4                lea rsi, qword[rsp+r8*8]
  4677 0000247D 48C7C201000000          mov rdx, 1
  4678 00002484 0F05                    syscall
  4679                                 
  4680                                 
  4681 00002486 49FFC0                  inc r8
  4682                                 
  4683 00002489 4D39E8                  cmp r8, r13
  4684 0000248C 7CDB                    jl ..@252.printTillEnd
  4685                                 
  4686                                  ..@252.finalChecks:
  4687                                 
  4688                                  ..@252.noMorePrints:
  4689                                 
  4690 0000248E 4C89D0                  mov rax, r10
  4691 00002491 49F7E6                  mul r14
  4692 00002494 4801C4                  add rsp, rax
  4693                                  ..@252.endProgram_macro:
  4694                                 
  4695 00002497 5D                      pop rbp
  4696 00002498 5E                      pop rsi
  4697 00002499 5F                      pop rdi
  4698 0000249A 415F                    pop r15
  4699 0000249C 415E                    pop r14
  4700 0000249E 415D                    pop r13
  4701 000024A0 415C                    pop r12
  4702 000024A2 415B                    pop r11
  4703 000024A4 415A                    pop r10
  4704 000024A6 59                      pop rcx
  4705 000024A7 5B                      pop rbx
  4706 000024A8 5A                      pop rdx
  4707 000024A9 58                      pop rax
  4708                                 
  4709                                 
  4710 000024AA 50                      push rax
  4711 000024AB 52                      push rdx
  4712 000024AC 53                      push rbx
  4713 000024AD 51                      push rcx
  4714 000024AE 4152                    push r10
  4715 000024B0 4153                    push r11
  4716 000024B2 4154                    push r12
  4717 000024B4 4155                    push r13
  4718 000024B6 4156                    push r14
  4719 000024B8 4157                    push r15
  4720 000024BA 57                      push rdi
  4721 000024BB 56                      push rsi
  4722 000024BC 55                      push rbp
  4723 000024BD 48C7C001000000          mov rax, 1
  4724 000024C4 48C7C701000000          mov rdi, 1
  4725 000024CB 48C7C6[00000000]        mov rsi, spaceMSG
  4726                                 
  4727                                 
  4728                                 
  4729 000024D2 48C7C200000000          mov rdx, 0
  4730                                  ..@257.notNull:
  4731                                 
  4732 000024D9 80BA[00000000]00        cmp byte[spaceMSG+rdx], NULL
  4733 000024E0 7403                    je ..@257.NullFound
  4734                                 
  4735                                 
  4736 000024E2 48FFC2                  inc rdx
  4737                                 
  4738 000024E5 EBF0                    jmp ..@257.notNull
  4739                                  ..@257.NullFound
  4740 000024E7 0F05                    syscall
  4741                                 
  4742                                 
  4743 000024E9 48C7C001000000          mov rax, 1
  4744 000024F0 48C7C701000000          mov rdi, 1
  4745 000024F7 48C7C6[00000000]        mov rsi, spaceMSG
  4746 000024FE 48C7C201000000          mov rdx, 1
  4747 00002505 0F05                    syscall
  4748                                 
  4749 00002507 5D                      pop rbp
  4750 00002508 5E                      pop rsi
  4751 00002509 5F                      pop rdi
  4752 0000250A 415F                    pop r15
  4753 0000250C 415E                    pop r14
  4754 0000250E 415D                    pop r13
  4755 00002510 415C                    pop r12
  4756 00002512 415B                    pop r11
  4757 00002514 415A                    pop r10
  4758 00002516 59                      pop rcx
  4759 00002517 5B                      pop rbx
  4760 00002518 5A                      pop rdx
  4761 00002519 58                      pop rax
  4762                                 
  4763 0000251A 50                      push rax
  4764 0000251B 48C7C200000000          mov rdx, 0
  4765 00002522 48F7F3                  div rbx
  4766 00002525 58                      pop rax
  4767 00002526 4883FA00                cmp rdx, 0
  4768 0000252A 7542                    jne ..@227.noNewLine
  4769                                 
  4770                                 
  4771                                 
  4772 0000252C 50                      push rax
  4773 0000252D 52                      push rdx
  4774 0000252E 53                      push rbx
  4775 0000252F 51                      push rcx
  4776 00002530 4152                    push r10
  4777 00002532 4153                    push r11
  4778 00002534 4154                    push r12
  4779 00002536 4155                    push r13
  4780 00002538 4156                    push r14
  4781 0000253A 4157                    push r15
  4782 0000253C 57                      push rdi
  4783 0000253D 56                      push rsi
  4784 0000253E 55                      push rbp
  4785 0000253F 48C7C001000000          mov rax, 1
  4786 00002546 48C7C701000000          mov rdi, 1
  4787 0000254D 48C7C6[00000000]        mov rsi, endlMSG
  4788 00002554 48C7C201000000          mov rdx, 1
  4789 0000255B 0F05                    syscall
  4790                                 
  4791 0000255D 5D                      pop rbp
  4792 0000255E 5E                      pop rsi
  4793 0000255F 5F                      pop rdi
  4794 00002560 415F                    pop r15
  4795 00002562 415E                    pop r14
  4796 00002564 415D                    pop r13
  4797 00002566 415C                    pop r12
  4798 00002568 415B                    pop r11
  4799 0000256A 415A                    pop r10
  4800 0000256C 59                      pop rcx
  4801 0000256D 5B                      pop rbx
  4802 0000256E 5A                      pop rdx
  4803 0000256F 58                      pop rax
  4804                                 
  4805                                  ..@227.noNewLine:
  4806 00002570 48FFC0                  inc rax
  4807 00002573 48C7C200000000          mov rdx, 0
  4808 0000257A E910FEFFFF              jmp ..@227.arrayPrintingLoop
  4809                                  ..@227.arrayPrintingLoopDone:
  4810                                 
  4811                                 
  4812 0000257F 50                      push rax
  4813 00002580 52                      push rdx
  4814 00002581 53                      push rbx
  4815 00002582 51                      push rcx
  4816 00002583 4152                    push r10
  4817 00002585 4153                    push r11
  4818 00002587 4154                    push r12
  4819 00002589 4155                    push r13
  4820 0000258B 4156                    push r14
  4821 0000258D 4157                    push r15
  4822 0000258F 57                      push rdi
  4823 00002590 56                      push rsi
  4824 00002591 55                      push rbp
  4825 00002592 48C7C001000000          mov rax, 1
  4826 00002599 48C7C701000000          mov rdi, 1
  4827 000025A0 48C7C6[00000000]        mov rsi, endlMSG
  4828 000025A7 48C7C201000000          mov rdx, 1
  4829 000025AE 0F05                    syscall
  4830                                 
  4831 000025B0 5D                      pop rbp
  4832 000025B1 5E                      pop rsi
  4833 000025B2 5F                      pop rdi
  4834 000025B3 415F                    pop r15
  4835 000025B5 415E                    pop r14
  4836 000025B7 415D                    pop r13
  4837 000025B9 415C                    pop r12
  4838 000025BB 415B                    pop r11
  4839 000025BD 415A                    pop r10
  4840 000025BF 59                      pop rcx
  4841 000025C0 5B                      pop rbx
  4842 000025C1 5A                      pop rdx
  4843 000025C2 58                      pop rax
  4844                                 %line 580+1 ast03.asm
  4845                                 
  4846                                 
  4847                                 
  4848                                  last:
  4849 000025C3 48C7C03C000000          mov rax, SYS_exit
  4850 000025CA 48C7C700000000          mov rdi, EXIT_SUCCESS
  4851 000025D1 0F05                    syscall
